  Tue Jun 17 2025  1:16                                                                                                    Page 1


                                               ***************************************
                                               **      WDC 65C816 Macro Assembler   **
                                               **                                   **
                                               **     Version 3.49.1- Feb  6 2006    **
                                               ***************************************

     1                        ;:ts=8
     2             00000001   R0	equ	1
     3             00000005   R1	equ	5
     4             00000009   R2	equ	9
     5             0000000D   R3	equ	13
     6                        ;/* Copyright (C) 2022, 2023 Petr Antos, AP-ware servis (mixworx.net) antos.petr@gmail.com - ALL RIGHT
                    S RESERVED */
     7                        ;
     8                        ;// !!! CHECK tests.h for list of errors !!!
     9                        ;
    10                        ;//README - till now, we dont have <target> subfolder and this is here to compile with Embarcadero DEV
                    CPP (win)
    11                        ;
    12                        ;#define RUN_TESTS     //compile and run tests in engine (/test arg or monitor t command)
    13                        ;//#define EMB_TESTS   //launch tests (selectivelly enabled by TEST_ #defines) immediatelly in main
    14                        ;//#define EMB_MAIN    //launch as vmexmain() from main.c/main() with MCU init - it is OK, no issues!!
    15                        ;#define DESKTOP       //instead od auto-detection, we explicitly define here compilation for desktops
                     (QL)
    16                        ;#define PAGE_SIZE (4*32) //16 at least for tests (16 instructions test scripts)
    17                        ;
    18                        ;//old compilers (maybe types will be completelly placed in target.h !!!! ASAP !!!!)
    19                        ;//#define TYPES_STDINT
    20                        ;#define TYPES_8
    21                        ;//#define TYPES_32
    22                        ;
    23                        ;//#define HOTFIX_QL_WEIRD_BEHAVIOR //totally weird behavior in MULDIV on QL - needs println !!!
    24                        ;
    25                        ;#define TEST_IMMEDIATE          //!!!
    26                        ;#define TEST_LUI_AUIPC_JAL      //!!!
    27                        ;#define TEST_REGISTERS
    28                        ;#define TEST_MULDIV             //!!!
    29                        ;#define TEST_COMPARE_MOV_UNARY
    30                        ;#define TEST_MEMORY_16
    31                        ;#define TEST_BRANCHES         //z88dk/sdcc fails on all six signed branches, weird as hell; also msp4
                    30 issues
    32                        ;#define TEST_BRANCHES_ZERO
    33                        ;#define TEST_SYS_JR_JALR
    34                        ;#define TEST_MEMORY_32
    35                        ;
    36                        ;
    37                        ;//tiniest core without multiplier ??
    38                        ;#define MULDIV        // "M" extension, takes 20-40% (now combined, using TU64X, TS64X structs, 8bit 
                    C compatible)
    39                        ;
    40                        ;//console
    41                        ;//#define LOADER      // absolute minimal loader part of monitor (load hex, flash, run, break, debug)
    42                        ;#define MONITOR       // complete monitor including diassebly, assembly
    43                        ;//#define ASLIX       // high level C-like/Python-like ASLIX assembler (symbols, C-operators, loop/ag
                    ain, comments)
    44                        ;
    45                        ;
    46                        ;#define CONSOLE       //not yet supported but will be part of the small/classic/aslix monitor
  Tue Jun 17 2025  1:16                                                                                                    Page 2


    47                        ;                      //goal is to support tiniest serial terminal but also allow larger ANSI/VT100-l
                    ike
    48                        ;                      //(or at least CPlus/4-like PETSCII) terminal with control cursor commands (esc
                    ape sequences).
    49                        ;                      //on embedded hardware the connection is GPIO powered SW UART by default
    50                        ;                      //on home computers its screen terminal module, linked to the VMEX (getch/putch
                     only)
    51                        ;                      //bigger VMEX/ASLIX application can use full terminal interface, still the same
                     way
    52                        ;                      //there will be NO spacial screen/keyboard access, only this unified terminal w
                    ay
    53                        ;                      //so, effectivelly this means need to develop UNIFIED TERMINAL for all HC aroun
                    d...
    54                        ;                      //
    55                        ;                      //truth is, that OUR support will be probably 2 color/mono (fore/back, inverse)
                     + cursor controls ONLY
    56                        ;                      //and standardized around basic ASCII subset, with probably custom loaded FONT 
                    to be exact everywhere
    57                        ;                      //
    58                        ;                      //will be good to follow operation of SALLY basic interpreter in relation to li
                    ne terminal usage !!!
    59                        ;                      //llowing co copy/paste text outputs and to have them PASTEABLE back as inputs 
                    for simple save/load !!!
    60                        ;                      //
    61                        ;                      //in fact, minimal monitor will serve as bootloader too (Unlock,Lock,* set pc,M
                    em,Go)
    62                        ;                      //there will be built-in basic security - PIN to unlock monitor (10 tries count
                    ing down, then permanent lock)
    63                        ;
    64                        ;
    65                        ;//defines above will be moved into target specific header, linked to code transparently from target f
                    older
    66                        ;//the same will be true for MMU macros/inlines which will inject handling larger memory on 8/16 bits
    67                        ;//generally, simple MMU code is very important to be effective, based on 2^n byte pages, 256 at least
    68                        ;//---------------------------------------------------------------------------------------------------
                    ----
    69                        ;
    70                        ;
    71                        ;//microchip XC8 license monthly ?41
    72                        ;//https://www.microchip.com/en-us/development-tool/SW006021-SUB#
    73                        ;
    74                        ;//Mixworx SciTE configuration for syntax colored ASLIX
    75                        ;//https://uloz.to/file/hFgGAJbPd2sI/mixworx-scite-zip#!ZJZjAmR2A2LjMQN4ZJD5AQtkAwt3ZxymZzEGIJIwDKukEw
                    x4ZD==
    76                        ;
    77                        ;
    78                        ;#include "VMEX.h"
    79                        ;
    80                        ;#include "muldiv.h"
    81                        	code
    82                        	xdef	__mul_TU32
    83                        	func
    84                        __mul_TU32:
    85                        	longa	on
    86                        	longi	on
    87 00:0000: 3B           	tsc
    88 00:0001: 38           	sec
    89 00:0002: E9 30 00     	sbc	#L2
  Tue Jun 17 2025  1:16                                                                                                    Page 3


    90 00:0005: 1B           	tcs
    91 00:0006: 0B           	phd
    92 00:0007: 5B           	tcd
    93             00000003   result_0	set	3
    94             00000005   a_0	set	5
    95             00000009   b_0	set	9
    96             00000000   a_low_1	set	0
    97             00000004   a_high_1	set	4
    98             00000008   b_low_1	set	8
    99             0000000C   b_high_1	set	12
   100             00000010   low_low_1	set	16
   101             00000014   low_high_1	set	20
   102             00000018   high_low_1	set	24
   103             0000001C   high_high_1	set	28
   104             00000020   mid1_1	set	32
   105             00000024   mid2_1	set	36
   106 00:0008: A5 35        	lda	<L2+a_0
   107 00:000A: 85 09        	sta	<L3+a_low_1
   108 00:000C: 64 0B        	stz	<L3+a_low_1+2
   109 00:000E: D4 37        	pei	<L2+a_0+2
   110 00:0010: D4 35        	pei	<L2+a_0
   111 00:0012: A9 10 00     	lda	#$10
   112                        	xref	__~llsr
   113 00:0015: 20 xx xx     	jsr	__~llsr
   114 00:0018: 85 0D        	sta	<L3+a_high_1
   115 00:001A: 86 0F        	stx	<L3+a_high_1+2
   116 00:001C: A5 39        	lda	<L2+b_0
   117 00:001E: 85 11        	sta	<L3+b_low_1
   118 00:0020: 64 13        	stz	<L3+b_low_1+2
   119 00:0022: D4 3B        	pei	<L2+b_0+2
   120 00:0024: D4 39        	pei	<L2+b_0
   121 00:0026: A9 10 00     	lda	#$10
   122                        	xref	__~llsr
   123 00:0029: 20 xx xx     	jsr	__~llsr
   124 00:002C: 85 15        	sta	<L3+b_high_1
   125 00:002E: 86 17        	stx	<L3+b_high_1+2
   126 00:0030: D4 13        	pei	<L3+b_low_1+2
   127 00:0032: D4 11        	pei	<L3+b_low_1
   128 00:0034: D4 0B        	pei	<L3+a_low_1+2
   129 00:0036: D4 09        	pei	<L3+a_low_1
   130                        	xref	__~lmul
   131 00:0038: 20 xx xx     	jsr	__~lmul
   132 00:003B: 85 19        	sta	<L3+low_low_1
   133 00:003D: 86 1B        	stx	<L3+low_low_1+2
   134 00:003F: D4 17        	pei	<L3+b_high_1+2
   135 00:0041: D4 15        	pei	<L3+b_high_1
   136 00:0043: D4 0B        	pei	<L3+a_low_1+2
   137 00:0045: D4 09        	pei	<L3+a_low_1
   138                        	xref	__~lmul
   139 00:0047: 20 xx xx     	jsr	__~lmul
   140 00:004A: 85 1D        	sta	<L3+low_high_1
   141 00:004C: 86 1F        	stx	<L3+low_high_1+2
   142 00:004E: D4 13        	pei	<L3+b_low_1+2
   143 00:0050: D4 11        	pei	<L3+b_low_1
   144 00:0052: D4 0F        	pei	<L3+a_high_1+2
   145 00:0054: D4 0D        	pei	<L3+a_high_1
   146                        	xref	__~lmul
   147 00:0056: 20 xx xx     	jsr	__~lmul
  Tue Jun 17 2025  1:16                                                                                                    Page 4


   148 00:0059: 85 21        	sta	<L3+high_low_1
   149 00:005B: 86 23        	stx	<L3+high_low_1+2
   150 00:005D: D4 17        	pei	<L3+b_high_1+2
   151 00:005F: D4 15        	pei	<L3+b_high_1
   152 00:0061: D4 0F        	pei	<L3+a_high_1+2
   153 00:0063: D4 0D        	pei	<L3+a_high_1
   154                        	xref	__~lmul
   155 00:0065: 20 xx xx     	jsr	__~lmul
   156 00:0068: 85 25        	sta	<L3+high_high_1
   157 00:006A: 86 27        	stx	<L3+high_high_1+2
   158 00:006C: A5 19        	lda	<L3+low_low_1
   159 00:006E: 92 33        	sta	(<L2+result_0)
   160 00:0070: A5 1B        	lda	<L3+low_low_1+2
   161 00:0072: A0 02 00     	ldy	#$2
   162 00:0075: 91 33        	sta	(<L2+result_0),Y
   163 00:0077: A5 25        	lda	<L3+high_high_1
   164 00:0079: C8           	iny
   165 00:007A: C8           	iny
   166 00:007B: 91 33        	sta	(<L2+result_0),Y
   167 00:007D: A5 27        	lda	<L3+high_high_1+2
   168 00:007F: C8           	iny
   169 00:0080: C8           	iny
   170 00:0081: 91 33        	sta	(<L2+result_0),Y
   171 00:0083: D4 1F        	pei	<L3+low_high_1+2
   172 00:0085: D4 1D        	pei	<L3+low_high_1
   173 00:0087: A9 10 00     	lda	#$10
   174                        	xref	__~lasl
   175 00:008A: 20 xx xx     	jsr	__~lasl
   176 00:008D: 85 29        	sta	<L3+mid1_1
   177 00:008F: 86 2B        	stx	<L3+mid1_1+2
   178 00:0091: D4 23        	pei	<L3+high_low_1+2
   179 00:0093: D4 21        	pei	<L3+high_low_1
   180 00:0095: A9 10 00     	lda	#$10
   181                        	xref	__~lasl
   182 00:0098: 20 xx xx     	jsr	__~lasl
   183 00:009B: 85 2D        	sta	<L3+mid2_1
   184 00:009D: 86 2F        	stx	<L3+mid2_1+2
   185 00:009F: B2 33        	lda	(<L2+result_0)
   186 00:00A1: 18           	clc
   187 00:00A2: 65 29        	adc	<L3+mid1_1
   188 00:00A4: 92 33        	sta	(<L2+result_0)
   189 00:00A6: A0 02 00     	ldy	#$2
   190 00:00A9: B1 33        	lda	(<L2+result_0),Y
   191 00:00AB: 65 2B        	adc	<L3+mid1_1+2
   192 00:00AD: 91 33        	sta	(<L2+result_0),Y
   193 00:00AF: B2 33        	lda	(<L2+result_0)
   194 00:00B1: C5 29        	cmp	<L3+mid1_1
   195 00:00B3: B1 33        	lda	(<L2+result_0),Y
   196 00:00B5: E5 2B        	sbc	<L3+mid1_1+2
   197 00:00B7: B0 13        	bcs	L10001
   198 00:00B9: 18           	clc
   199 00:00BA: A9 01 00     	lda	#$1
   200 00:00BD: C8           	iny
   201 00:00BE: C8           	iny
   202 00:00BF: 71 33        	adc	(<L2+result_0),Y
   203 00:00C1: 91 33        	sta	(<L2+result_0),Y
   204 00:00C3: A9 00 00     	lda	#$0
   205 00:00C6: C8           	iny
  Tue Jun 17 2025  1:16                                                                                                    Page 5


   206 00:00C7: C8           	iny
   207 00:00C8: 71 33        	adc	(<L2+result_0),Y
   208 00:00CA: 91 33        	sta	(<L2+result_0),Y
   209                        L10001:
   210 00:00CC: B2 33        	lda	(<L2+result_0)
   211 00:00CE: 18           	clc
   212 00:00CF: 65 2D        	adc	<L3+mid2_1
   213 00:00D1: 92 33        	sta	(<L2+result_0)
   214 00:00D3: A0 02 00     	ldy	#$2
   215 00:00D6: B1 33        	lda	(<L2+result_0),Y
   216 00:00D8: 65 2F        	adc	<L3+mid2_1+2
   217 00:00DA: 91 33        	sta	(<L2+result_0),Y
   218 00:00DC: B2 33        	lda	(<L2+result_0)
   219 00:00DE: C5 2D        	cmp	<L3+mid2_1
   220 00:00E0: B1 33        	lda	(<L2+result_0),Y
   221 00:00E2: E5 2F        	sbc	<L3+mid2_1+2
   222 00:00E4: B0 13        	bcs	L10002
   223 00:00E6: 18           	clc
   224 00:00E7: A9 01 00     	lda	#$1
   225 00:00EA: C8           	iny
   226 00:00EB: C8           	iny
   227 00:00EC: 71 33        	adc	(<L2+result_0),Y
   228 00:00EE: 91 33        	sta	(<L2+result_0),Y
   229 00:00F0: A9 00 00     	lda	#$0
   230 00:00F3: C8           	iny
   231 00:00F4: C8           	iny
   232 00:00F5: 71 33        	adc	(<L2+result_0),Y
   233 00:00F7: 91 33        	sta	(<L2+result_0),Y
   234                        L10002:
   235 00:00F9: A9 04 00     	lda	#$4
   236 00:00FC: 18           	clc
   237 00:00FD: 65 33        	adc	<L2+result_0
   238 00:00FF: 85 01        	sta	<R0
   239 00:0101: D4 1F        	pei	<L3+low_high_1+2
   240 00:0103: D4 1D        	pei	<L3+low_high_1
   241 00:0105: A9 10 00     	lda	#$10
   242                        	xref	__~llsr
   243 00:0108: 20 xx xx     	jsr	__~llsr
   244 00:010B: 86 07        	stx	<R1+2
   245 00:010D: 18           	clc
   246 00:010E: 72 01        	adc	(<R0)
   247 00:0110: 92 01        	sta	(<R0)
   248 00:0112: A5 07        	lda	<R1+2
   249 00:0114: A0 02 00     	ldy	#$2
   250 00:0117: 71 01        	adc	(<R0),Y
   251 00:0119: 91 01        	sta	(<R0),Y
   252 00:011B: A9 04 00     	lda	#$4
   253 00:011E: 18           	clc
   254 00:011F: 65 33        	adc	<L2+result_0
   255 00:0121: 85 01        	sta	<R0
   256 00:0123: D4 23        	pei	<L3+high_low_1+2
   257 00:0125: D4 21        	pei	<L3+high_low_1
   258 00:0127: A9 10 00     	lda	#$10
   259                        	xref	__~llsr
   260 00:012A: 20 xx xx     	jsr	__~llsr
   261 00:012D: 86 07        	stx	<R1+2
   262 00:012F: 18           	clc
   263 00:0130: 72 01        	adc	(<R0)
  Tue Jun 17 2025  1:16                                                                                                    Page 6


   264 00:0132: 92 01        	sta	(<R0)
   265 00:0134: A5 07        	lda	<R1+2
   266 00:0136: A0 02 00     	ldy	#$2
   267 00:0139: 71 01        	adc	(<R0),Y
   268 00:013B: 91 01        	sta	(<R0),Y
   269 00:013D: A5 31        	lda	<L2+1
   270 00:013F: 85 3B        	sta	<L2+1+10
   271 00:0141: 2B           	pld
   272 00:0142: 3B           	tsc
   273 00:0143: 18           	clc
   274 00:0144: 69 3A 00     	adc	#L2+10
   275 00:0147: 1B           	tcs
   276 00:0148: 60           	rts
   277             00000030   L2	equ	48
   278             00000009   L3	equ	9
   279                        	ends
   280                        	efunc
   281                        	code
   282                        	xdef	__mul_TS32
   283                        	func
   284                        __mul_TS32:
   285                        	longa	on
   286                        	longi	on
   287 00:0149: 3B           	tsc
   288 00:014A: 38           	sec
   289 00:014B: E9 14 00     	sbc	#L7
   290 00:014E: 1B           	tcs
   291 00:014F: 0B           	phd
   292 00:0150: 5B           	tcd
   293             00000003   result_0	set	3
   294             00000005   a_0	set	5
   295             00000009   b_0	set	9
   296             00000000   mul_unsigned_1	set	0
   297             00000008   a_unsigned_1	set	8
   298             0000000C   b_unsigned_1	set	12
   299 00:0151: A5 19        	lda	<L7+a_0
   300 00:0153: 85 0D        	sta	<L8+a_unsigned_1
   301 00:0155: A5 1B        	lda	<L7+a_0+2
   302 00:0157: 85 0F        	sta	<L8+a_unsigned_1+2
   303 00:0159: A5 1D        	lda	<L7+b_0
   304 00:015B: 85 11        	sta	<L8+b_unsigned_1
   305 00:015D: A5 1F        	lda	<L7+b_0+2
   306 00:015F: 85 13        	sta	<L8+b_unsigned_1+2
   307 00:0161: 48           	pha
   308 00:0162: D4 11        	pei	<L8+b_unsigned_1
   309 00:0164: D4 0F        	pei	<L8+a_unsigned_1+2
   310 00:0166: D4 0D        	pei	<L8+a_unsigned_1
   311 00:0168: 18           	clc
   312 00:0169: 7B           	tdc
   313 00:016A: 69 05 00     	adc	#<L8+mul_unsigned_1
   314 00:016D: 48           	pha
   315 00:016E: 20 xx xx     	jsr	__mul_TU32
   316 00:0171: A5 05        	lda	<L8+mul_unsigned_1
   317 00:0173: 92 17        	sta	(<L7+result_0)
   318 00:0175: A5 07        	lda	<L8+mul_unsigned_1+2
   319 00:0177: A0 02 00     	ldy	#$2
   320 00:017A: 91 17        	sta	(<L7+result_0),Y
   321 00:017C: A5 09        	lda	<L8+mul_unsigned_1+4
  Tue Jun 17 2025  1:16                                                                                                    Page 7


   322 00:017E: C8           	iny
   323 00:017F: C8           	iny
   324 00:0180: 91 17        	sta	(<L7+result_0),Y
   325 00:0182: A5 0B        	lda	<L8+mul_unsigned_1+6
   326 00:0184: C8           	iny
   327 00:0185: C8           	iny
   328 00:0186: 91 17        	sta	(<L7+result_0),Y
   329 00:0188: A5 1B        	lda	<L7+a_0+2
   330 00:018A: 10 18        	bpl	L10003
   331 00:018C: A9 04 00     	lda	#$4
   332 00:018F: 18           	clc
   333 00:0190: 65 17        	adc	<L7+result_0
   334 00:0192: 85 01        	sta	<R0
   335 00:0194: 38           	sec
   336 00:0195: B2 01        	lda	(<R0)
   337 00:0197: E5 11        	sbc	<L8+b_unsigned_1
   338 00:0199: 92 01        	sta	(<R0)
   339 00:019B: A0 02 00     	ldy	#$2
   340 00:019E: B1 01        	lda	(<R0),Y
   341 00:01A0: E5 13        	sbc	<L8+b_unsigned_1+2
   342 00:01A2: 91 01        	sta	(<R0),Y
   343                        L10003:
   344 00:01A4: A5 1F        	lda	<L7+b_0+2
   345 00:01A6: 10 18        	bpl	L11
   346 00:01A8: A9 04 00     	lda	#$4
   347 00:01AB: 18           	clc
   348 00:01AC: 65 17        	adc	<L7+result_0
   349 00:01AE: 85 01        	sta	<R0
   350 00:01B0: 38           	sec
   351 00:01B1: B2 01        	lda	(<R0)
   352 00:01B3: E5 0D        	sbc	<L8+a_unsigned_1
   353 00:01B5: 92 01        	sta	(<R0)
   354 00:01B7: A0 02 00     	ldy	#$2
   355 00:01BA: B1 01        	lda	(<R0),Y
   356 00:01BC: E5 0F        	sbc	<L8+a_unsigned_1+2
   357 00:01BE: 91 01        	sta	(<R0),Y
   358                        L11:
   359 00:01C0: A5 15        	lda	<L7+1
   360 00:01C2: 85 1F        	sta	<L7+1+10
   361 00:01C4: 2B           	pld
   362 00:01C5: 3B           	tsc
   363 00:01C6: 18           	clc
   364 00:01C7: 69 1E 00     	adc	#L7+10
   365 00:01CA: 1B           	tcs
   366 00:01CB: 60           	rts
   367             00000014   L7	equ	20
   368             00000005   L8	equ	5
   369                        	ends
   370                        	efunc
   371                        	code
   372                        	xdef	__mul
   373                        	func
   374                        __mul:
   375                        	longa	on
   376                        	longi	on
   377 00:01CC: 3B           	tsc
   378 00:01CD: 38           	sec
   379 00:01CE: E9 08 00     	sbc	#L12
  Tue Jun 17 2025  1:16                                                                                                    Page 8


   380 00:01D1: 1B           	tcs
   381 00:01D2: 0B           	phd
   382 00:01D3: 5B           	tcd
   383             00000003   a_0	set	3
   384             00000007   b_0	set	7
   385             00000000   result_1	set	0
   386 00:01D4: D4 11        	pei	<L12+b_0+2
   387 00:01D6: D4 0F        	pei	<L12+b_0
   388 00:01D8: D4 0D        	pei	<L12+a_0+2
   389 00:01DA: D4 0B        	pei	<L12+a_0
   390 00:01DC: 18           	clc
   391 00:01DD: 7B           	tdc
   392 00:01DE: 69 01 00     	adc	#<L13+result_1
   393 00:01E1: 48           	pha
   394 00:01E2: 20 xx xx     	jsr	__mul_TS32
   395 00:01E5: A6 03        	ldx	<L13+result_1+2
   396 00:01E7: A5 01        	lda	<L13+result_1
   397 00:01E9: A8           	tay
   398 00:01EA: A5 09        	lda	<L12+1
   399 00:01EC: 85 11        	sta	<L12+1+8
   400 00:01EE: 2B           	pld
   401 00:01EF: 3B           	tsc
   402 00:01F0: 18           	clc
   403 00:01F1: 69 10 00     	adc	#L12+8
   404 00:01F4: 1B           	tcs
   405 00:01F5: 98           	tya
   406 00:01F6: 60           	rts
   407             00000008   L12	equ	8
   408             00000001   L13	equ	1
   409                        	ends
   410                        	efunc
   411                        	code
   412                        	xdef	__mulh
   413                        	func
   414                        __mulh:
   415                        	longa	on
   416                        	longi	on
   417 00:01F7: 3B           	tsc
   418 00:01F8: 38           	sec
   419 00:01F9: E9 08 00     	sbc	#L15
   420 00:01FC: 1B           	tcs
   421 00:01FD: 0B           	phd
   422 00:01FE: 5B           	tcd
   423             00000003   a_0	set	3
   424             00000007   b_0	set	7
   425             00000000   result_1	set	0
   426 00:01FF: D4 11        	pei	<L15+b_0+2
   427 00:0201: D4 0F        	pei	<L15+b_0
   428 00:0203: D4 0D        	pei	<L15+a_0+2
   429 00:0205: D4 0B        	pei	<L15+a_0
   430 00:0207: 18           	clc
   431 00:0208: 7B           	tdc
   432 00:0209: 69 01 00     	adc	#<L16+result_1
   433 00:020C: 48           	pha
   434 00:020D: 20 xx xx     	jsr	__mul_TS32
   435 00:0210: A6 07        	ldx	<L16+result_1+6
   436 00:0212: A5 05        	lda	<L16+result_1+4
   437 00:0214: A8           	tay
  Tue Jun 17 2025  1:16                                                                                                    Page 9


   438 00:0215: A5 09        	lda	<L15+1
   439 00:0217: 85 11        	sta	<L15+1+8
   440 00:0219: 2B           	pld
   441 00:021A: 3B           	tsc
   442 00:021B: 18           	clc
   443 00:021C: 69 10 00     	adc	#L15+8
   444 00:021F: 1B           	tcs
   445 00:0220: 98           	tya
   446 00:0221: 60           	rts
   447             00000008   L15	equ	8
   448             00000001   L16	equ	1
   449                        	ends
   450                        	efunc
   451                        	code
   452                        	xdef	__mulhu
   453                        	func
   454                        __mulhu:
   455                        	longa	on
   456                        	longi	on
   457 00:0222: 3B           	tsc
   458 00:0223: 38           	sec
   459 00:0224: E9 08 00     	sbc	#L18
   460 00:0227: 1B           	tcs
   461 00:0228: 0B           	phd
   462 00:0229: 5B           	tcd
   463             00000003   a_0	set	3
   464             00000007   b_0	set	7
   465             00000000   result_1	set	0
   466 00:022A: D4 11        	pei	<L18+b_0+2
   467 00:022C: D4 0F        	pei	<L18+b_0
   468 00:022E: D4 0D        	pei	<L18+a_0+2
   469 00:0230: D4 0B        	pei	<L18+a_0
   470 00:0232: 18           	clc
   471 00:0233: 7B           	tdc
   472 00:0234: 69 01 00     	adc	#<L19+result_1
   473 00:0237: 48           	pha
   474 00:0238: 20 xx xx     	jsr	__mul_TU32
   475 00:023B: A6 07        	ldx	<L19+result_1+6
   476 00:023D: A5 05        	lda	<L19+result_1+4
   477 00:023F: A8           	tay
   478 00:0240: A5 09        	lda	<L18+1
   479 00:0242: 85 11        	sta	<L18+1+8
   480 00:0244: 2B           	pld
   481 00:0245: 3B           	tsc
   482 00:0246: 18           	clc
   483 00:0247: 69 10 00     	adc	#L18+8
   484 00:024A: 1B           	tcs
   485 00:024B: 98           	tya
   486 00:024C: 60           	rts
   487             00000008   L18	equ	8
   488             00000001   L19	equ	1
   489                        	ends
   490                        	efunc
   491                        	code
   492                        	xdef	__mulhsu
   493                        	func
   494                        __mulhsu:
   495                        	longa	on
  Tue Jun 17 2025  1:16                                                                                                    Page 10


   496                        	longi	on
   497 00:024D: 3B           	tsc
   498 00:024E: 38           	sec
   499 00:024F: E9 08 00     	sbc	#L21
   500 00:0252: 1B           	tcs
   501 00:0253: 0B           	phd
   502 00:0254: 5B           	tcd
   503             00000003   a_0	set	3
   504             00000007   b_0	set	7
   505             00000000   result_1	set	0
   506 00:0255: D4 11        	pei	<L21+b_0+2
   507 00:0257: D4 0F        	pei	<L21+b_0
   508 00:0259: D4 0D        	pei	<L21+a_0+2
   509 00:025B: D4 0B        	pei	<L21+a_0
   510 00:025D: 18           	clc
   511 00:025E: 7B           	tdc
   512 00:025F: 69 01 00     	adc	#<L22+result_1
   513 00:0262: 48           	pha
   514 00:0263: 20 xx xx     	jsr	__mul_TS32
   515 00:0266: A6 07        	ldx	<L22+result_1+6
   516 00:0268: A5 05        	lda	<L22+result_1+4
   517 00:026A: A8           	tay
   518 00:026B: A5 09        	lda	<L21+1
   519 00:026D: 85 11        	sta	<L21+1+8
   520 00:026F: 2B           	pld
   521 00:0270: 3B           	tsc
   522 00:0271: 18           	clc
   523 00:0272: 69 10 00     	adc	#L21+8
   524 00:0275: 1B           	tcs
   525 00:0276: 98           	tya
   526 00:0277: 60           	rts
   527             00000008   L21	equ	8
   528             00000001   L22	equ	1
   529                        	ends
   530                        	efunc
   531                        ;#include "console.h"
   532                        	code
   533                        	xdef	__input
   534                        	func
   535                        __input:
   536                        	longa	on
   537                        	longi	on
   538 00:0278: 3B           	tsc
   539 00:0279: 38           	sec
   540 00:027A: E9 00 00     	sbc	#L24
   541 00:027D: 1B           	tcs
   542 00:027E: 0B           	phd
   543 00:027F: 5B           	tcd
   544             00000003   line_0	set	3
   545             00000005   size_0	set	5
   546 00:0280: F4 xx xx     	pea	#<___iob
   547 00:0283: A5 05        	lda	<L24+size_0
   548 00:0285: 29 FF 00     	and	#$ff
   549 00:0288: 48           	pha
   550 00:0289: D4 03        	pei	<L24+line_0
   551 00:028B: 20 xx xx     	jsr	__fgets
   552 00:028E: A5 01        	lda	<L24+1
   553 00:0290: 85 05        	sta	<L24+1+4
  Tue Jun 17 2025  1:16                                                                                                    Page 11


   554 00:0292: 2B           	pld
   555 00:0293: 3B           	tsc
   556 00:0294: 18           	clc
   557 00:0295: 69 04 00     	adc	#L24+4
   558 00:0298: 1B           	tcs
   559 00:0299: 60           	rts
   560             00000000   L24	equ	0
   561             00000001   L25	equ	1
   562                        	ends
   563                        	efunc
   564                        	code
   565                        	xdef	__print
   566                        	func
   567                        __print:
   568                        	longa	on
   569                        	longi	on
   570 00:029A: 3B           	tsc
   571 00:029B: 38           	sec
   572 00:029C: E9 00 00     	sbc	#L27
   573 00:029F: 1B           	tcs
   574 00:02A0: 0B           	phd
   575 00:02A1: 5B           	tcd
   576             00000003   str_0	set	3
   577 00:02A2: D4 03        	pei	<L27+str_0
   578 00:02A4: F4 04 00     	pea	#4
   579 00:02A7: 20 xx xx     	jsr	__printf
   580 00:02AA: A5 01        	lda	<L27+1
   581 00:02AC: 85 03        	sta	<L27+1+2
   582 00:02AE: 2B           	pld
   583 00:02AF: 3B           	tsc
   584 00:02B0: 18           	clc
   585 00:02B1: 69 02 00     	adc	#L27+2
   586 00:02B4: 1B           	tcs
   587 00:02B5: 60           	rts
   588             00000000   L27	equ	0
   589             00000001   L28	equ	1
   590                        	ends
   591                        	efunc
   592                        	code
   593                        	xdef	__println
   594                        	func
   595                        __println:
   596                        	longa	on
   597                        	longi	on
   598 00:02B6: 3B           	tsc
   599 00:02B7: 38           	sec
   600 00:02B8: E9 00 00     	sbc	#L30
   601 00:02BB: 1B           	tcs
   602 00:02BC: 0B           	phd
   603 00:02BD: 5B           	tcd
   604             00000003   str_0	set	3
   605 00:02BE: D4 03        	pei	<L30+str_0
   606 00:02C0: F4 04 00     	pea	#4
   607 00:02C3: 20 xx xx     	jsr	__printf
   608 00:02C6: F4 xx xx     	pea	#<L1
   609 00:02C9: F4 04 00     	pea	#4
   610 00:02CC: 20 xx xx     	jsr	__printf
   611 00:02CF: A5 01        	lda	<L30+1
  Tue Jun 17 2025  1:16                                                                                                    Page 12


   612 00:02D1: 85 03        	sta	<L30+1+2
   613 00:02D3: 2B           	pld
   614 00:02D4: 3B           	tsc
   615 00:02D5: 18           	clc
   616 00:02D6: 69 02 00     	adc	#L30+2
   617 00:02D9: 1B           	tcs
   618 00:02DA: 60           	rts
   619             00000000   L30	equ	0
   620             00000001   L31	equ	1
   621                        	ends
   622                        	efunc
   623                        	data
   624                        L1:
   625 00:0000: 0A 00        	db	$0A,$00
   626 00:0002:              	ends
   627                        	code
   628                        	xdef	__println_num
   629                        	func
   630                        __println_num:
   631                        	longa	on
   632                        	longi	on
   633 00:02DB: 3B           	tsc
   634 00:02DC: 38           	sec
   635 00:02DD: E9 00 00     	sbc	#L34
   636 00:02E0: 1B           	tcs
   637 00:02E1: 0B           	phd
   638 00:02E2: 5B           	tcd
   639             00000003   num_0	set	3
   640 00:02E3: D4 05        	pei	<L34+num_0+2
   641 00:02E5: D4 03        	pei	<L34+num_0
   642 00:02E7: F4 xx xx     	pea	#<L33
   643 00:02EA: F4 08 00     	pea	#8
   644 00:02ED: 20 xx xx     	jsr	__printf
   645 00:02F0: F4 xx xx     	pea	#<L33+3
   646 00:02F3: F4 04 00     	pea	#4
   647 00:02F6: 20 xx xx     	jsr	__printf
   648 00:02F9: A5 01        	lda	<L34+1
   649 00:02FB: 85 05        	sta	<L34+1+4
   650 00:02FD: 2B           	pld
   651 00:02FE: 3B           	tsc
   652 00:02FF: 18           	clc
   653 00:0300: 69 04 00     	adc	#L34+4
   654 00:0303: 1B           	tcs
   655 00:0304: 60           	rts
   656             00000000   L34	equ	0
   657             00000001   L35	equ	1
   658                        	ends
   659                        	efunc
   660                        	data
   661                        L33:
   662 00:0002: 25 64 00 0A  	db	$25,$64,$00,$0A,$00
       00:0006: 00 
   663 00:0007:              	ends
   664                        	code
   665                        	xdef	__itoh
   666                        	func
   667                        __itoh:
   668                        	longa	on
  Tue Jun 17 2025  1:16                                                                                                    Page 13


   669                        	longi	on
   670 00:0305: 3B           	tsc
   671 00:0306: 38           	sec
   672 00:0307: E9 0F 00     	sbc	#L38
   673 00:030A: 1B           	tcs
   674 00:030B: 0B           	phd
   675 00:030C: 5B           	tcd
   676             00000003   num_0	set	3
   677             00000007   pos_0	set	7
   678             00000000   shift_1	set	0
   679             00000001   hex_digit_1	set	1
   680             00000002   i_1	set	2
   681 00:030D: E2 20        	sep	#$20
   682                        	longa	off
   683 00:030F: 64 0F        	stz	<L39+i_1
   684 00:0311: C2 20        	rep	#$20
   685                        	longa	on
   686 00:0313: 80 70        	bra	L10008
   687                        L10007:
   688 00:0315: A5 0F        	lda	<L39+i_1
   689 00:0317: 29 FF 00     	and	#$ff
   690 00:031A: 0A           	asl	A
   691 00:031B: 0A           	asl	A
   692 00:031C: 85 01        	sta	<R0
   693 00:031E: A5 16        	lda	<L38+pos_0
   694 00:0320: 29 FF 00     	and	#$ff
   695 00:0323: 0A           	asl	A
   696 00:0324: 0A           	asl	A
   697 00:0325: 18           	clc
   698 00:0326: 69 FC FF     	adc	#$fffc
   699 00:0329: 38           	sec
   700 00:032A: E5 01        	sbc	<R0
   701 00:032C: E2 20        	sep	#$20
   702                        	longa	off
   703 00:032E: 85 0D        	sta	<L39+shift_1
   704 00:0330: C2 20        	rep	#$20
   705                        	longa	on
   706 00:0332: D4 14        	pei	<L38+num_0+2
   707 00:0334: D4 12        	pei	<L38+num_0
   708 00:0336: A5 0D        	lda	<L39+shift_1
   709 00:0338: 29 FF 00     	and	#$ff
   710                        	xref	__~llsr
   711 00:033B: 20 xx xx     	jsr	__~llsr
   712 00:033E: 86 03        	stx	<R0+2
   713 00:0340: 29 0F 00     	and	#<$f
   714 00:0343: 85 05        	sta	<R1
   715 00:0345: 64 07        	stz	<R1+2
   716 00:0347: E2 20        	sep	#$20
   717                        	longa	off
   718 00:0349: A5 05        	lda	<R1
   719 00:034B: 85 0E        	sta	<L39+hex_digit_1
   720 00:034D: C2 20        	rep	#$20
   721                        	longa	on
   722 00:034F: A5 0F        	lda	<L39+i_1
   723 00:0351: 29 FF 00     	and	#$ff
   724 00:0354: 85 01        	sta	<R0
   725 00:0356: E2 20        	sep	#$20
   726                        	longa	off
  Tue Jun 17 2025  1:16                                                                                                    Page 14


   727 00:0358: A5 0E        	lda	<L39+hex_digit_1
   728 00:035A: C9 0A        	cmp	#<$a
   729 00:035C: C2 20        	rep	#$20
   730                        	longa	on
   731 00:035E: B0 0D        	bcs	L40
   732 00:0360: A5 0E        	lda	<L39+hex_digit_1
   733 00:0362: 29 FF 00     	and	#$ff
   734 00:0365: 85 05        	sta	<R1
   735 00:0367: 18           	clc
   736 00:0368: A9 30 00     	lda	#$30
   737 00:036B: 80 0B        	bra	L20000
   738                        L40:
   739 00:036D: A5 0E        	lda	<L39+hex_digit_1
   740 00:036F: 29 FF 00     	and	#$ff
   741 00:0372: 85 05        	sta	<R1
   742 00:0374: 18           	clc
   743 00:0375: A9 37 00     	lda	#$37
   744                        L20000:
   745 00:0378: 65 05        	adc	<R1
   746 00:037A: E2 20        	sep	#$20
   747                        	longa	off
   748 00:037C: A6 01        	ldx	<R0
   749 00:037E: 9D xx xx     	sta	|__printbuffer,X
   750 00:0381: E6 0F        	inc	<L39+i_1
   751 00:0383: C2 20        	rep	#$20
   752                        	longa	on
   753                        L10008:
   754 00:0385: E2 20        	sep	#$20
   755                        	longa	off
   756 00:0387: A5 0F        	lda	<L39+i_1
   757 00:0389: C5 16        	cmp	<L38+pos_0
   758 00:038B: C2 20        	rep	#$20
   759                        	longa	on
   760 00:038D: 90 86        	bcc	L10007
   761 00:038F: A5 16        	lda	<L38+pos_0
   762 00:0391: 29 FF 00     	and	#$ff
   763 00:0394: AA           	tax
   764 00:0395: E2 20        	sep	#$20
   765                        	longa	off
   766 00:0397: A9 00        	lda	#$0
   767 00:0399: 9D xx xx     	sta	|__printbuffer,X
   768 00:039C: C2 20        	rep	#$20
   769                        	longa	on
   770 00:039E: A9 xx xx     	lda	#<__printbuffer
   771 00:03A1: A8           	tay
   772 00:03A2: A5 10        	lda	<L38+1
   773 00:03A4: 85 16        	sta	<L38+1+6
   774 00:03A6: 2B           	pld
   775 00:03A7: 3B           	tsc
   776 00:03A8: 18           	clc
   777 00:03A9: 69 15 00     	adc	#L38+6
   778 00:03AC: 1B           	tcs
   779 00:03AD: 98           	tya
   780 00:03AE: 60           	rts
   781             0000000F   L38	equ	15
   782             0000000D   L39	equ	13
   783                        	ends
   784                        	efunc
  Tue Jun 17 2025  1:16                                                                                                    Page 15


   785                        ;#include "arduino.h"
   786                        ;
   787                        ;//try to follow things here... Modern C (as far as older compilers allow, ya)
   788                        ;//https://www.youtube.com/watch?v=QpAhX-gsHMs
   789                        ;
   790                        ;// current core struct is only naive and not ready for multicore (but vmex code is transpaent by poin
                    ters)
   791                        ;// we need in core regs, pc and POINTERS to prog / data
   792                        ;// we need ability to allocate prog/data in RAM and map prog to flash
   793                        ;// cores in RAM (developemnt) and RAM/FLASH (deployment)
   794                        ;
   795                        ;
   796                        ;//we needd to introduce some MMU code for memory access, ano on 8/16bits solve the banking of memory,
   797                        ;//here it is naturally leading to separate cores for separate banks, at least; to achieve simplest sw
                    itching
   798                        ;//even having vmex engine duplicated in each bank too; of course separate cores neeeds separate RAM p
                    ages
   799                        ;
   800                        ;
   801                        ;#define PROG_SIZE (PAGE_SIZE * 1)
   802                        ;#define DATA_SIZE (PAGE_SIZE * 1)
   803                        ;
   804                        ;// Define core struct
   805                        ;typedef struct
   806                        ;{
   807                        ;    REGS_TYPE regs[16];
   808                        ;    //TU8 rsvd[42 << 2]; //reserved (msg in/out buffers, breakpoints)
   809                        ;    PC_TYPE pc;
   810                        ;    TU8 data[DATA_SIZE];
   811                        ;    TU8 prog[PROG_SIZE];
   812                        ;} Core; //__attribute__((aligned(4))) Core; //dev-cpp fails on segfault !!!
   813                        ;
   814                        ;Core core = {
   815                        	data
   816                        	xdef	__core
   817                        __core:
   818                        ;    {0}, // initialize regs to all zeroes
   819 00:0007: 00 00 00 00  	dl	$0
   820 00:000B:              	ds	60
   821                        ;    //{0}, // initialize rsvd to all zeroes //found bug here by z88dk +zx !!!
   822                        ;    0,   // initialize pc to zero
   823 00:0047: 00 00 00 00  	dl	$0
   824                        ;    {0}, // initialize data to all zeroes
   825 00:004B: 00           	db	$0
   826 00:004C:              	ds	127
   827                        ;    {0}  // initialize prog to all zeroes
   828 00:00CB: 00           	db	$0
   829 00:00CC:              	ds	127
   830                        ;};
   831 00:014B:              	ends
   832                        ;
   833                        ;
   834                        ;#include "tests.h"
   835                        	code
   836                        	xdef	__runtests
   837                        	func
   838                        __runtests:
   839                        	longa	on
  Tue Jun 17 2025  1:16                                                                                                    Page 16


   840                        	longi	on
   841 00:03AF: 3B           	tsc
   842 00:03B0: 38           	sec
   843 00:03B1: E9 06 00     	sbc	#L45
   844 00:03B4: 1B           	tcs
   845 00:03B5: 0B           	phd
   846 00:03B6: 5B           	tcd
   847             00000000   fails_1	set	0
   848 00:03B7: 64 05        	stz	<L46+fails_1
   849 00:03B9: F4 xx xx     	pea	#<L37
   850 00:03BC: F4 00 00     	pea	#<$0
   851 00:03BF: 20 xx xx     	jsr	__test
   852 00:03C2: 18           	clc
   853 00:03C3: 65 05        	adc	<L46+fails_1
   854 00:03C5: 85 05        	sta	<L46+fails_1
   855 00:03C7: F4 xx xx     	pea	#<L37+4
   856 00:03CA: F4 11 00     	pea	#<$11
   857 00:03CD: 20 xx xx     	jsr	__test
   858 00:03D0: 18           	clc
   859 00:03D1: 65 05        	adc	<L46+fails_1
   860 00:03D3: 85 05        	sta	<L46+fails_1
   861 00:03D5: F4 xx xx     	pea	#<L37+12
   862 00:03D8: F4 12 00     	pea	#<$12
   863 00:03DB: 20 xx xx     	jsr	__test
   864 00:03DE: 18           	clc
   865 00:03DF: 65 05        	adc	<L46+fails_1
   866 00:03E1: 85 05        	sta	<L46+fails_1
   867 00:03E3: F4 xx xx     	pea	#<L37+20
   868 00:03E6: F4 13 00     	pea	#<$13
   869 00:03E9: 20 xx xx     	jsr	__test
   870 00:03EC: 18           	clc
   871 00:03ED: 65 05        	adc	<L46+fails_1
   872 00:03EF: 85 05        	sta	<L46+fails_1
   873 00:03F1: F4 xx xx     	pea	#<L37+28
   874 00:03F4: F4 14 00     	pea	#<$14
   875 00:03F7: 20 xx xx     	jsr	__test
   876 00:03FA: 18           	clc
   877 00:03FB: 65 05        	adc	<L46+fails_1
   878 00:03FD: 85 05        	sta	<L46+fails_1
   879 00:03FF: F4 xx xx     	pea	#<L37+36
   880 00:0402: F4 15 00     	pea	#<$15
   881 00:0405: 20 xx xx     	jsr	__test
   882 00:0408: 18           	clc
   883 00:0409: 65 05        	adc	<L46+fails_1
   884 00:040B: 85 05        	sta	<L46+fails_1
   885 00:040D: F4 xx xx     	pea	#<L37+43
   886 00:0410: F4 16 00     	pea	#<$16
   887 00:0413: 20 xx xx     	jsr	__test
   888 00:0416: 18           	clc
   889 00:0417: 65 05        	adc	<L46+fails_1
   890 00:0419: 85 05        	sta	<L46+fails_1
   891 00:041B: F4 xx xx     	pea	#<L37+53
   892 00:041E: F4 18 00     	pea	#<$18
   893 00:0421: 20 xx xx     	jsr	__test
   894 00:0424: 18           	clc
   895 00:0425: 65 05        	adc	<L46+fails_1
   896 00:0427: 85 05        	sta	<L46+fails_1
   897 00:0429: F4 xx xx     	pea	#<L37+58
  Tue Jun 17 2025  1:16                                                                                                    Page 17


   898 00:042C: F4 1A 00     	pea	#<$1a
   899 00:042F: 20 xx xx     	jsr	__test
   900 00:0432: 18           	clc
   901 00:0433: 65 05        	adc	<L46+fails_1
   902 00:0435: 85 05        	sta	<L46+fails_1
   903 00:0437: F4 xx xx     	pea	#<L37+66
   904 00:043A: F4 1B 00     	pea	#<$1b
   905 00:043D: 20 xx xx     	jsr	__test
   906 00:0440: 18           	clc
   907 00:0441: 65 05        	adc	<L46+fails_1
   908 00:0443: 85 05        	sta	<L46+fails_1
   909 00:0445: F4 xx xx     	pea	#<L37+75
   910 00:0448: F4 1E 00     	pea	#<$1e
   911 00:044B: 20 xx xx     	jsr	__test
   912 00:044E: 18           	clc
   913 00:044F: 65 05        	adc	<L46+fails_1
   914 00:0451: 85 05        	sta	<L46+fails_1
   915 00:0453: F4 xx xx     	pea	#<L37+81
   916 00:0456: F4 1F 00     	pea	#<$1f
   917 00:0459: 20 xx xx     	jsr	__test
   918 00:045C: 18           	clc
   919 00:045D: 65 05        	adc	<L46+fails_1
   920 00:045F: 85 05        	sta	<L46+fails_1
   921 00:0461: F4 xx xx     	pea	#<L37+93
   922 00:0464: F4 71 00     	pea	#<$71
   923 00:0467: 20 xx xx     	jsr	__test
   924 00:046A: 18           	clc
   925 00:046B: 65 05        	adc	<L46+fails_1
   926 00:046D: 85 05        	sta	<L46+fails_1
   927 00:046F: F4 xx xx     	pea	#<L37+100
   928 00:0472: F4 7A 00     	pea	#<$7a
   929 00:0475: 20 xx xx     	jsr	__test
   930 00:0478: 18           	clc
   931 00:0479: 65 05        	adc	<L46+fails_1
   932 00:047B: 85 05        	sta	<L46+fails_1
   933 00:047D: F4 xx xx     	pea	#<L37+109
   934 00:0480: F4 7F 00     	pea	#<$7f
   935 00:0483: 20 xx xx     	jsr	__test
   936 00:0486: 18           	clc
   937 00:0487: 65 05        	adc	<L46+fails_1
   938 00:0489: 85 05        	sta	<L46+fails_1
   939 00:048B: F4 xx xx     	pea	#<L37+127
   940 00:048E: F4 66 00     	pea	#<$66
   941 00:0491: 20 xx xx     	jsr	__test
   942 00:0494: 18           	clc
   943 00:0495: 65 05        	adc	<L46+fails_1
   944 00:0497: 85 05        	sta	<L46+fails_1
   945 00:0499: F4 xx xx     	pea	#<L37+150
   946 00:049C: F4 31 00     	pea	#<$31
   947 00:049F: 20 xx xx     	jsr	__test
   948 00:04A2: 18           	clc
   949 00:04A3: 65 05        	adc	<L46+fails_1
   950 00:04A5: 85 05        	sta	<L46+fails_1
   951 00:04A7: F4 xx xx     	pea	#<L37+157
   952 00:04AA: F4 32 00     	pea	#<$32
   953 00:04AD: 20 xx xx     	jsr	__test
   954 00:04B0: 18           	clc
   955 00:04B1: 65 05        	adc	<L46+fails_1
  Tue Jun 17 2025  1:16                                                                                                    Page 18


   956 00:04B3: 85 05        	sta	<L46+fails_1
   957 00:04B5: F4 xx xx     	pea	#<L37+164
   958 00:04B8: F4 33 00     	pea	#<$33
   959 00:04BB: 20 xx xx     	jsr	__test
   960 00:04BE: 18           	clc
   961 00:04BF: 65 05        	adc	<L46+fails_1
   962 00:04C1: 85 05        	sta	<L46+fails_1
   963 00:04C3: F4 xx xx     	pea	#<L37+171
   964 00:04C6: F4 34 00     	pea	#<$34
   965 00:04C9: 20 xx xx     	jsr	__test
   966 00:04CC: 18           	clc
   967 00:04CD: 65 05        	adc	<L46+fails_1
   968 00:04CF: 85 05        	sta	<L46+fails_1
   969 00:04D1: F4 xx xx     	pea	#<L37+178
   970 00:04D4: F4 35 00     	pea	#<$35
   971 00:04D7: 20 xx xx     	jsr	__test
   972 00:04DA: 18           	clc
   973 00:04DB: 65 05        	adc	<L46+fails_1
   974 00:04DD: 85 05        	sta	<L46+fails_1
   975 00:04DF: F4 xx xx     	pea	#<L37+184
   976 00:04E2: F4 36 00     	pea	#<$36
   977 00:04E5: 20 xx xx     	jsr	__test
   978 00:04E8: 18           	clc
   979 00:04E9: 65 05        	adc	<L46+fails_1
   980 00:04EB: 85 05        	sta	<L46+fails_1
   981 00:04ED: F4 xx xx     	pea	#<L37+192
   982 00:04F0: F4 38 00     	pea	#<$38
   983 00:04F3: 20 xx xx     	jsr	__test
   984 00:04F6: 18           	clc
   985 00:04F7: 65 05        	adc	<L46+fails_1
   986 00:04F9: 85 05        	sta	<L46+fails_1
   987 00:04FB: F4 xx xx     	pea	#<L37+196
   988 00:04FE: F4 3A 00     	pea	#<$3a
   989 00:0501: 20 xx xx     	jsr	__test
   990 00:0504: 18           	clc
   991 00:0505: 65 05        	adc	<L46+fails_1
   992 00:0507: 85 05        	sta	<L46+fails_1
   993 00:0509: F4 xx xx     	pea	#<L37+203
   994 00:050C: F4 3B 00     	pea	#<$3b
   995 00:050F: 20 xx xx     	jsr	__test
   996 00:0512: 18           	clc
   997 00:0513: 65 05        	adc	<L46+fails_1
   998 00:0515: 85 05        	sta	<L46+fails_1
   999 00:0517: F4 xx xx     	pea	#<L37+211
  1000 00:051A: F4 21 00     	pea	#<$21
  1001 00:051D: 20 xx xx     	jsr	__test
  1002 00:0520: 18           	clc
  1003 00:0521: 65 05        	adc	<L46+fails_1
  1004 00:0523: 85 05        	sta	<L46+fails_1
  1005 00:0525: F4 xx xx     	pea	#<L37+220
  1006 00:0528: F4 23 00     	pea	#<$23
  1007 00:052B: 20 xx xx     	jsr	__test
  1008 00:052E: 18           	clc
  1009 00:052F: 65 05        	adc	<L46+fails_1
  1010 00:0531: 85 05        	sta	<L46+fails_1
  1011 00:0533: F4 xx xx     	pea	#<L37+226
  1012 00:0536: F4 24 00     	pea	#<$24
  1013 00:0539: 20 xx xx     	jsr	__test
  Tue Jun 17 2025  1:16                                                                                                    Page 19


  1014 00:053C: 18           	clc
  1015 00:053D: 65 05        	adc	<L46+fails_1
  1016 00:053F: 85 05        	sta	<L46+fails_1
  1017 00:0541: F4 xx xx     	pea	#<L37+233
  1018 00:0544: F4 25 00     	pea	#<$25
  1019 00:0547: 20 xx xx     	jsr	__test
  1020 00:054A: 18           	clc
  1021 00:054B: 65 05        	adc	<L46+fails_1
  1022 00:054D: 85 05        	sta	<L46+fails_1
  1023 00:054F: F4 xx xx     	pea	#<L37+237
  1024 00:0552: F4 26 00     	pea	#<$26
  1025 00:0555: 20 xx xx     	jsr	__test
  1026 00:0558: 18           	clc
  1027 00:0559: 65 05        	adc	<L46+fails_1
  1028 00:055B: 85 05        	sta	<L46+fails_1
  1029 00:055D: F4 xx xx     	pea	#<L37+242
  1030 00:0560: F4 27 00     	pea	#<$27
  1031 00:0563: 20 xx xx     	jsr	__test
  1032 00:0566: 18           	clc
  1033 00:0567: 65 05        	adc	<L46+fails_1
  1034 00:0569: 85 05        	sta	<L46+fails_1
  1035 00:056B: F4 xx xx     	pea	#<L37+246
  1036 00:056E: F4 28 00     	pea	#<$28
  1037 00:0571: 20 xx xx     	jsr	__test
  1038 00:0574: 18           	clc
  1039 00:0575: 65 05        	adc	<L46+fails_1
  1040 00:0577: 85 05        	sta	<L46+fails_1
  1041 00:0579: F4 xx xx     	pea	#<L37+251
  1042 00:057C: F4 C1 00     	pea	#<$c1
  1043 00:057F: 20 xx xx     	jsr	__test
  1044 00:0582: 18           	clc
  1045 00:0583: 65 05        	adc	<L46+fails_1
  1046 00:0585: 85 05        	sta	<L46+fails_1
  1047 00:0587: F4 xx xx     	pea	#<L37+259
  1048 00:058A: F4 C3 00     	pea	#<$c3
  1049 00:058D: 20 xx xx     	jsr	__test
  1050 00:0590: 18           	clc
  1051 00:0591: 65 05        	adc	<L46+fails_1
  1052 00:0593: 85 05        	sta	<L46+fails_1
  1053 00:0595: F4 xx xx     	pea	#<L37+267
  1054 00:0598: F4 C4 00     	pea	#<$c4
  1055 00:059B: 20 xx xx     	jsr	__test
  1056 00:059E: 18           	clc
  1057 00:059F: 65 05        	adc	<L46+fails_1
  1058 00:05A1: 85 05        	sta	<L46+fails_1
  1059 00:05A3: F4 xx xx     	pea	#<L37+275
  1060 00:05A6: F4 C6 00     	pea	#<$c6
  1061 00:05A9: 20 xx xx     	jsr	__test
  1062 00:05AC: 18           	clc
  1063 00:05AD: 65 05        	adc	<L46+fails_1
  1064 00:05AF: 85 05        	sta	<L46+fails_1
  1065 00:05B1: F4 xx xx     	pea	#<L37+283
  1066 00:05B4: F4 DD 00     	pea	#<$dd
  1067 00:05B7: 20 xx xx     	jsr	__test
  1068 00:05BA: 18           	clc
  1069 00:05BB: 65 05        	adc	<L46+fails_1
  1070 00:05BD: 85 05        	sta	<L46+fails_1
  1071 00:05BF: F4 xx xx     	pea	#<L37+290
  Tue Jun 17 2025  1:16                                                                                                    Page 20


  1072 00:05C2: F4 D0 00     	pea	#<$d0
  1073 00:05C5: 20 xx xx     	jsr	__test
  1074 00:05C8: 18           	clc
  1075 00:05C9: 65 05        	adc	<L46+fails_1
  1076 00:05CB: 85 05        	sta	<L46+fails_1
  1077 00:05CD: F4 xx xx     	pea	#<L37+297
  1078 00:05D0: F4 DE 00     	pea	#<$de
  1079 00:05D3: 20 xx xx     	jsr	__test
  1080 00:05D6: 18           	clc
  1081 00:05D7: 65 05        	adc	<L46+fails_1
  1082 00:05D9: 85 05        	sta	<L46+fails_1
  1083 00:05DB: F4 xx xx     	pea	#<L37+304
  1084 00:05DE: F4 DF 00     	pea	#<$df
  1085 00:05E1: 20 xx xx     	jsr	__test
  1086 00:05E4: 18           	clc
  1087 00:05E5: 65 05        	adc	<L46+fails_1
  1088 00:05E7: 85 05        	sta	<L46+fails_1
  1089 00:05E9: F4 xx xx     	pea	#<L37+311
  1090 00:05EC: F4 51 00     	pea	#<$51
  1091 00:05EF: 20 xx xx     	jsr	__test
  1092 00:05F2: 18           	clc
  1093 00:05F3: 65 05        	adc	<L46+fails_1
  1094 00:05F5: 85 05        	sta	<L46+fails_1
  1095 00:05F7: F4 xx xx     	pea	#<L37+317
  1096 00:05FA: F4 52 00     	pea	#<$52
  1097 00:05FD: 20 xx xx     	jsr	__test
  1098 00:0600: 18           	clc
  1099 00:0601: 65 05        	adc	<L46+fails_1
  1100 00:0603: 85 05        	sta	<L46+fails_1
  1101 00:0605: F4 xx xx     	pea	#<L37+323
  1102 00:0608: F4 54 00     	pea	#<$54
  1103 00:060B: 20 xx xx     	jsr	__test
  1104 00:060E: 18           	clc
  1105 00:060F: 65 05        	adc	<L46+fails_1
  1106 00:0611: 85 05        	sta	<L46+fails_1
  1107 00:0613: F4 xx xx     	pea	#<L37+329
  1108 00:0616: F4 AB 00     	pea	#<$ab
  1109 00:0619: 20 xx xx     	jsr	__test
  1110 00:061C: 18           	clc
  1111 00:061D: 65 05        	adc	<L46+fails_1
  1112 00:061F: 85 05        	sta	<L46+fails_1
  1113 00:0621: F4 xx xx     	pea	#<L37+333
  1114 00:0624: F4 AD 00     	pea	#<$ad
  1115 00:0627: 20 xx xx     	jsr	__test
  1116 00:062A: 18           	clc
  1117 00:062B: 65 05        	adc	<L46+fails_1
  1118 00:062D: 85 05        	sta	<L46+fails_1
  1119 00:062F: F4 xx xx     	pea	#<L37+337
  1120 00:0632: F4 B1 00     	pea	#<$b1
  1121 00:0635: 20 xx xx     	jsr	__test
  1122 00:0638: 18           	clc
  1123 00:0639: 65 05        	adc	<L46+fails_1
  1124 00:063B: 85 05        	sta	<L46+fails_1
  1125 00:063D: F4 xx xx     	pea	#<L37+341
  1126 00:0640: F4 B2 00     	pea	#<$b2
  1127 00:0643: 20 xx xx     	jsr	__test
  1128 00:0646: 18           	clc
  1129 00:0647: 65 05        	adc	<L46+fails_1
  Tue Jun 17 2025  1:16                                                                                                    Page 21


  1130 00:0649: 85 05        	sta	<L46+fails_1
  1131 00:064B: F4 xx xx     	pea	#<L37+345
  1132 00:064E: F4 B3 00     	pea	#<$b3
  1133 00:0651: 20 xx xx     	jsr	__test
  1134 00:0654: 18           	clc
  1135 00:0655: 65 05        	adc	<L46+fails_1
  1136 00:0657: 85 05        	sta	<L46+fails_1
  1137 00:0659: F4 xx xx     	pea	#<L37+349
  1138 00:065C: F4 B4 00     	pea	#<$b4
  1139 00:065F: 20 xx xx     	jsr	__test
  1140 00:0662: 18           	clc
  1141 00:0663: 65 05        	adc	<L46+fails_1
  1142 00:0665: 85 05        	sta	<L46+fails_1
  1143 00:0667: F4 xx xx     	pea	#<L37+353
  1144 00:066A: F4 B5 00     	pea	#<$b5
  1145 00:066D: 20 xx xx     	jsr	__test
  1146 00:0670: 18           	clc
  1147 00:0671: 65 05        	adc	<L46+fails_1
  1148 00:0673: 85 05        	sta	<L46+fails_1
  1149 00:0675: F4 xx xx     	pea	#<L37+357
  1150 00:0678: F4 B6 00     	pea	#<$b6
  1151 00:067B: 20 xx xx     	jsr	__test
  1152 00:067E: 18           	clc
  1153 00:067F: 65 05        	adc	<L46+fails_1
  1154 00:0681: 85 05        	sta	<L46+fails_1
  1155 00:0683: F4 xx xx     	pea	#<L37+361
  1156 00:0686: F4 BA 00     	pea	#<$ba
  1157 00:0689: 20 xx xx     	jsr	__test
  1158 00:068C: 18           	clc
  1159 00:068D: 65 05        	adc	<L46+fails_1
  1160 00:068F: 85 05        	sta	<L46+fails_1
  1161 00:0691: F4 xx xx     	pea	#<L37+366
  1162 00:0694: F4 BB 00     	pea	#<$bb
  1163 00:0697: 20 xx xx     	jsr	__test
  1164 00:069A: 18           	clc
  1165 00:069B: 65 05        	adc	<L46+fails_1
  1166 00:069D: 85 05        	sta	<L46+fails_1
  1167 00:069F: F4 xx xx     	pea	#<L37+371
  1168 00:06A2: F4 BC 00     	pea	#<$bc
  1169 00:06A5: 20 xx xx     	jsr	__test
  1170 00:06A8: 18           	clc
  1171 00:06A9: 65 05        	adc	<L46+fails_1
  1172 00:06AB: 85 05        	sta	<L46+fails_1
  1173 00:06AD: F4 xx xx     	pea	#<L37+376
  1174 00:06B0: F4 BD 00     	pea	#<$bd
  1175 00:06B3: 20 xx xx     	jsr	__test
  1176 00:06B6: 18           	clc
  1177 00:06B7: 65 05        	adc	<L46+fails_1
  1178 00:06B9: 85 05        	sta	<L46+fails_1
  1179 00:06BB: F4 xx xx     	pea	#<L37+381
  1180 00:06BE: F4 81 00     	pea	#<$81
  1181 00:06C1: 20 xx xx     	jsr	__test
  1182 00:06C4: 18           	clc
  1183 00:06C5: 65 05        	adc	<L46+fails_1
  1184 00:06C7: 85 05        	sta	<L46+fails_1
  1185 00:06C9: F4 xx xx     	pea	#<L37+386
  1186 00:06CC: F4 82 00     	pea	#<$82
  1187 00:06CF: 20 xx xx     	jsr	__test
  Tue Jun 17 2025  1:16                                                                                                    Page 22


  1188 00:06D2: 18           	clc
  1189 00:06D3: 65 05        	adc	<L46+fails_1
  1190 00:06D5: 85 05        	sta	<L46+fails_1
  1191 00:06D7: F4 xx xx     	pea	#<L37+391
  1192 00:06DA: F4 83 00     	pea	#<$83
  1193 00:06DD: 20 xx xx     	jsr	__test
  1194 00:06E0: 18           	clc
  1195 00:06E1: 65 05        	adc	<L46+fails_1
  1196 00:06E3: 85 05        	sta	<L46+fails_1
  1197 00:06E5: F4 xx xx     	pea	#<L37+396
  1198 00:06E8: F4 84 00     	pea	#<$84
  1199 00:06EB: 20 xx xx     	jsr	__test
  1200 00:06EE: 18           	clc
  1201 00:06EF: 65 05        	adc	<L46+fails_1
  1202 00:06F1: 85 05        	sta	<L46+fails_1
  1203 00:06F3: F4 xx xx     	pea	#<L37+401
  1204 00:06F6: F4 85 00     	pea	#<$85
  1205 00:06F9: 20 xx xx     	jsr	__test
  1206 00:06FC: 18           	clc
  1207 00:06FD: 65 05        	adc	<L46+fails_1
  1208 00:06FF: 85 05        	sta	<L46+fails_1
  1209 00:0701: F4 xx xx     	pea	#<L37+406
  1210 00:0704: F4 86 00     	pea	#<$86
  1211 00:0707: 20 xx xx     	jsr	__test
  1212 00:070A: 18           	clc
  1213 00:070B: 65 05        	adc	<L46+fails_1
  1214 00:070D: 85 05        	sta	<L46+fails_1
  1215 00:070F: F4 xx xx     	pea	#<L37+411
  1216 00:0712: F4 42 00     	pea	#<$42
  1217 00:0715: 20 xx xx     	jsr	__test
  1218 00:0718: 18           	clc
  1219 00:0719: 65 05        	adc	<L46+fails_1
  1220 00:071B: 85 05        	sta	<L46+fails_1
  1221 00:071D: F4 xx xx     	pea	#<L37+417
  1222 00:0720: F4 48 00     	pea	#<$48
  1223 00:0723: 20 xx xx     	jsr	__test
  1224 00:0726: 18           	clc
  1225 00:0727: 65 05        	adc	<L46+fails_1
  1226 00:0729: 85 05        	sta	<L46+fails_1
  1227 00:072B: F4 xx xx     	pea	#<L37+424
  1228 00:072E: F4 40 00     	pea	#<$40
  1229 00:0731: 20 xx xx     	jsr	__test
  1230 00:0734: 18           	clc
  1231 00:0735: 65 05        	adc	<L46+fails_1
  1232 00:0737: 85 05        	sta	<L46+fails_1
  1233 00:0739: F4 xx xx     	pea	#<L37+430
  1234 00:073C: F4 46 00     	pea	#<$46
  1235 00:073F: 20 xx xx     	jsr	__test
  1236 00:0742: 18           	clc
  1237 00:0743: 65 05        	adc	<L46+fails_1
  1238 00:0745: 85 05        	sta	<L46+fails_1
  1239 00:0747: F4 xx xx     	pea	#<L37+436
  1240 00:074A: F4 4C 00     	pea	#<$4c
  1241 00:074D: 20 xx xx     	jsr	__test
  1242 00:0750: 18           	clc
  1243 00:0751: 65 05        	adc	<L46+fails_1
  1244 00:0753: 85 05        	sta	<L46+fails_1
  1245 00:0755: F4 xx xx     	pea	#<L37+442
  Tue Jun 17 2025  1:16                                                                                                    Page 23


  1246 00:0758: F4 EC 00     	pea	#<$ec
  1247 00:075B: 20 xx xx     	jsr	__test
  1248 00:075E: 18           	clc
  1249 00:075F: 65 05        	adc	<L46+fails_1
  1250 00:0761: 85 05        	sta	<L46+fails_1
  1251 00:0763: F4 xx xx     	pea	#<L37+451
  1252 00:0766: F4 EE 00     	pea	#<$ee
  1253 00:0769: 20 xx xx     	jsr	__test
  1254 00:076C: 18           	clc
  1255 00:076D: 65 05        	adc	<L46+fails_1
  1256 00:076F: 85 05        	sta	<L46+fails_1
  1257 00:0771: F4 xx xx     	pea	#<L37+460
  1258 00:0774: F4 EA 00     	pea	#<$ea
  1259 00:0777: 20 xx xx     	jsr	__test
  1260 00:077A: 18           	clc
  1261 00:077B: 65 05        	adc	<L46+fails_1
  1262 00:077D: 85 05        	sta	<L46+fails_1
  1263 00:077F: F4 xx xx     	pea	#<L37+471
  1264 00:0782: F4 EA 00     	pea	#<$ea
  1265 00:0785: 20 xx xx     	jsr	__test
  1266 00:0788: 18           	clc
  1267 00:0789: 65 05        	adc	<L46+fails_1
  1268 00:078B: 85 05        	sta	<L46+fails_1
  1269 00:078D: F4 xx xx     	pea	#<L37+483
  1270 00:0790: F4 F1 00     	pea	#<$f1
  1271 00:0793: 20 xx xx     	jsr	__test
  1272 00:0796: 18           	clc
  1273 00:0797: 65 05        	adc	<L46+fails_1
  1274 00:0799: 85 05        	sta	<L46+fails_1
  1275 00:079B: F4 xx xx     	pea	#<L37+498
  1276 00:079E: F4 F2 00     	pea	#<$f2
  1277 00:07A1: 20 xx xx     	jsr	__test
  1278 00:07A4: 18           	clc
  1279 00:07A5: 65 05        	adc	<L46+fails_1
  1280 00:07A7: 85 05        	sta	<L46+fails_1
  1281 00:07A9: F4 xx xx     	pea	#<L37+513
  1282 00:07AC: F4 F4 00     	pea	#<$f4
  1283 00:07AF: 20 xx xx     	jsr	__test
  1284 00:07B2: 18           	clc
  1285 00:07B3: 65 05        	adc	<L46+fails_1
  1286 00:07B5: 85 05        	sta	<L46+fails_1
  1287 00:07B7: 48           	pha
  1288 00:07B8: F4 xx xx     	pea	#<L37+528
  1289 00:07BB: F4 06 00     	pea	#6
  1290 00:07BE: 20 xx xx     	jsr	__printf
  1291 00:07C1: A5 05        	lda	<L46+fails_1
  1292 00:07C3: A8           	tay
  1293 00:07C4: 2B           	pld
  1294 00:07C5: 3B           	tsc
  1295 00:07C6: 18           	clc
  1296 00:07C7: 69 06 00     	adc	#L45
  1297 00:07CA: 1B           	tcs
  1298 00:07CB: 98           	tya
  1299 00:07CC: 60           	rts
  1300             00000006   L45	equ	6
  1301             00000005   L46	equ	5
  1302                        	ends
  1303                        	efunc
  Tue Jun 17 2025  1:16                                                                                                    Page 24


  1304                        	data
  1305                        L37:
  1306 00:014B: 6E 6F 70 00  	db	$6E,$6F,$70,$00,$61,$64,$64,$69,$20,$31,$36,$00,$73,$75,$62
       00:014F: 61 64 64 69 
       00:0153: 20 31 36 00 
       00:0157: 73 75 62 
  1307 00:015A: 69 20 31 36  	db	$69,$20,$31,$36,$00,$78,$6F,$72,$69,$20,$31,$36,$00,$61,$6E
       00:015E: 00 78 6F 72 
       00:0162: 69 20 31 36 
       00:0166: 00 61 6E 
  1308 00:0169: 64 69 20 31  	db	$64,$69,$20,$31,$36,$00,$6F,$72,$69,$20,$31,$36,$00,$73,$6C
       00:016D: 36 00 6F 72 
       00:0171: 69 20 31 36 
       00:0175: 00 73 6C 
  1309 00:0178: 6C 69 20 73  	db	$6C,$69,$20,$73,$72,$6C,$69,$00,$73,$72,$61,$69,$00,$63,$6C
       00:017C: 72 6C 69 00 
       00:0180: 73 72 61 69 
       00:0184: 00 63 6C 
  1310 00:0187: 74 69 20 31  	db	$74,$69,$20,$31,$36,$00,$63,$6C,$74,$69,$75,$20,$31,$36,$00
       00:018B: 36 00 63 6C 
       00:018F: 74 69 75 20 
       00:0193: 31 36 00 
  1311 00:0196: 6C 69 20 31  	db	$6C,$69,$20,$31,$36,$00,$6C,$69,$20,$2D,$20,$66,$75,$73,$69
       00:019A: 36 00 6C 69 
       00:019E: 20 2D 20 66 
       00:01A2: 75 73 69 
  1312 00:01A5: 6F 6E 00 6C  	db	$6F,$6E,$00,$6C,$75,$69,$20,$33,$32,$00,$61,$75,$69,$70,$63
       00:01A9: 75 69 20 33 
       00:01AD: 32 00 61 75 
       00:01B1: 69 70 63 
  1313 00:01B4: 20 33 32 00  	db	$20,$33,$32,$00,$6A,$61,$6C,$20,$6A,$6C,$20,$6A,$61,$6C,$72
       00:01B8: 6A 61 6C 20 
       00:01BC: 6A 6C 20 6A 
       00:01C0: 61 6C 72 
  1314 00:01C3: 20 28 72 65  	db	$20,$28,$72,$65,$74,$29,$00,$67,$6F,$74,$6F,$3D,$36,$36,$20
       00:01C7: 74 29 00 67 
       00:01CB: 6F 74 6F 3D 
       00:01CF: 36 36 20 
  1315 00:01D2: 63 61 6C 6C  	db	$63,$61,$6C,$6C,$3D,$36,$43,$20,$72,$65,$74,$3D,$34,$34,$00
       00:01D6: 3D 36 43 20 
       00:01DA: 72 65 74 3D 
       00:01DE: 34 34 00 
  1316 00:01E1: 61 64 64 20  	db	$61,$64,$64,$20,$31,$36,$00,$73,$75,$62,$20,$31,$36,$00,$78
       00:01E5: 31 36 00 73 
       00:01E9: 75 62 20 31 
       00:01ED: 36 00 78 
  1317 00:01F0: 6F 72 20 31  	db	$6F,$72,$20,$31,$36,$00,$61,$6E,$64,$20,$31,$36,$00,$6F,$72
       00:01F4: 36 00 61 6E 
       00:01F8: 64 20 31 36 
       00:01FC: 00 6F 72 
  1318 00:01FF: 20 31 36 00  	db	$20,$31,$36,$00,$73,$6C,$6C,$20,$73,$72,$6C,$00,$73,$72,$61
       00:0203: 73 6C 6C 20 
       00:0207: 73 72 6C 00 
       00:020B: 73 72 61 
  1319 00:020E: 00 63 6C 74  	db	$00,$63,$6C,$74,$20,$31,$36,$00,$63,$6C,$74,$75,$20,$31,$36
       00:0212: 20 31 36 00 
       00:0216: 63 6C 74 75 
       00:021A: 20 31 36 
  Tue Jun 17 2025  1:16                                                                                                    Page 25


  1320 00:021D: 00 6D 75 6C  	db	$00,$6D,$75,$6C,$20,$6D,$75,$6C,$68,$00,$6D,$75,$6C,$68,$75
       00:0221: 20 6D 75 6C 
       00:0225: 68 00 6D 75 
       00:0229: 6C 68 75 
  1321 00:022C: 00 6D 75 6C  	db	$00,$6D,$75,$6C,$73,$68,$75,$00,$64,$69,$76,$00,$64,$69,$76
       00:0230: 73 68 75 00 
       00:0234: 64 69 76 00 
       00:0238: 64 69 76 
  1322 00:023B: 75 00 72 65  	db	$75,$00,$72,$65,$6D,$00,$72,$65,$6D,$75,$00,$63,$6C,$74,$7A
       00:023F: 6D 00 72 65 
       00:0243: 6D 75 00 63 
       00:0247: 6C 74 7A 
  1323 00:024A: 20 31 36 00  	db	$20,$31,$36,$00,$63,$6E,$65,$7A,$20,$31,$36,$00,$63,$65,$71
       00:024E: 63 6E 65 7A 
       00:0252: 20 31 36 00 
       00:0256: 63 65 71 
  1324 00:0259: 7A 20 31 36  	db	$7A,$20,$31,$36,$00,$63,$67,$74,$7A,$20,$31,$36,$00,$6D,$6F
       00:025D: 00 63 67 74 
       00:0261: 7A 20 31 36 
       00:0265: 00 6D 6F 
  1325 00:0268: 76 20 31 36  	db	$76,$20,$31,$36,$00,$69,$6E,$69,$20,$31,$36,$00,$6E,$65,$67
       00:026C: 00 69 6E 69 
       00:0270: 20 31 36 00 
       00:0274: 6E 65 67 
  1326 00:0277: 20 31 36 00  	db	$20,$31,$36,$00,$6E,$6F,$74,$20,$31,$36,$00,$77,$62,$20,$6C
       00:027B: 6E 6F 74 20 
       00:027F: 31 36 00 77 
       00:0283: 62 20 6C 
  1327 00:0286: 62 00 77 68  	db	$62,$00,$77,$68,$20,$6C,$68,$00,$77,$77,$20,$6C,$77,$00,$6C
       00:028A: 20 6C 68 00 
       00:028E: 77 77 20 6C 
       00:0292: 77 00 6C 
  1328 00:0295: 62 75 00 6C  	db	$62,$75,$00,$6C,$68,$75,$00,$62,$6C,$74,$00,$62,$6C,$65,$00
       00:0299: 68 75 00 62 
       00:029D: 6C 74 00 62 
       00:02A1: 6C 65 00 
  1329 00:02A4: 62 6E 65 00  	db	$62,$6E,$65,$00,$62,$65,$71,$00,$62,$67,$65,$00,$62,$67,$74
       00:02A8: 62 65 71 00 
       00:02AC: 62 67 65 00 
       00:02B0: 62 67 74 
  1330 00:02B3: 00 62 6C 74  	db	$00,$62,$6C,$74,$75,$00,$62,$6C,$65,$75,$00,$62,$67,$65,$75
       00:02B7: 75 00 62 6C 
       00:02BB: 65 75 00 62 
       00:02BF: 67 65 75 
  1331 00:02C2: 00 62 67 74  	db	$00,$62,$67,$74,$75,$00,$62,$6C,$74,$7A,$00,$62,$6C,$65,$7A
       00:02C6: 75 00 62 6C 
       00:02CA: 74 7A 00 62 
       00:02CE: 6C 65 7A 
  1332 00:02D1: 00 62 6E 65  	db	$00,$62,$6E,$65,$7A,$00,$62,$65,$71,$7A,$00,$62,$67,$65,$7A
       00:02D5: 7A 00 62 65 
       00:02D9: 71 7A 00 62 
       00:02DD: 67 65 7A 
  1333 00:02E0: 00 62 67 74  	db	$00,$62,$67,$74,$7A,$00,$65,$63,$61,$6C,$6C,$00,$65,$62,$72
       00:02E4: 7A 00 65 63 
       00:02E8: 61 6C 6C 00 
       00:02EC: 65 62 72 
  1334 00:02EF: 65 61 6B 00  	db	$65,$61,$6B,$00,$66,$65,$6E,$63,$65,$00,$69,$67,$6F,$74,$6F
       00:02F3: 66 65 6E 63 
  Tue Jun 17 2025  1:16                                                                                                    Page 26


       00:02F7: 65 00 69 67 
       00:02FB: 6F 74 6F 
  1335 00:02FE: 00 69 63 61  	db	$00,$69,$63,$61,$6C,$6C,$00,$66,$63,$61,$6C,$6C,$20,$33,$32
       00:0302: 6C 6C 00 66 
       00:0306: 63 61 6C 6C 
       00:030A: 20 33 32 
  1336 00:030D: 00 66 74 61  	db	$00,$66,$74,$61,$69,$6C,$20,$33,$32,$00,$6C,$61,$20,$31,$36
       00:0311: 69 6C 20 33 
       00:0315: 32 00 6C 61 
       00:0319: 20 31 36 
  1337 00:031C: 20 28 6C 69  	db	$20,$28,$6C,$69,$29,$00,$6C,$61,$20,$2D,$20,$66,$75,$73,$69
       00:0320: 29 00 6C 61 
       00:0324: 20 2D 20 66 
       00:0328: 75 73 69 
  1338 00:032B: 6F 6E 00 77  	db	$6F,$6E,$00,$77,$62,$20,$6C,$62,$20,$2D,$20,$66,$75,$73,$69
       00:032F: 62 20 6C 62 
       00:0333: 20 2D 20 66 
       00:0337: 75 73 69 
  1339 00:033A: 6F 6E 00 77  	db	$6F,$6E,$00,$77,$68,$20,$6C,$68,$20,$2D,$20,$66,$75,$73,$69
       00:033E: 68 20 6C 68 
       00:0342: 20 2D 20 66 
       00:0346: 75 73 69 
  1340 00:0349: 6F 6E 00 77  	db	$6F,$6E,$00,$77,$77,$20,$6C,$77,$20,$2D,$20,$66,$75,$73,$69
       00:034D: 77 20 6C 77 
       00:0351: 20 2D 20 66 
       00:0355: 75 73 69 
  1341 00:0358: 6F 6E 00 0A  	db	$6F,$6E,$00,$0A,$54,$65,$73,$74,$20,$66,$61,$69,$6C,$73,$3A
       00:035C: 54 65 73 74 
       00:0360: 20 66 61 69 
       00:0364: 6C 73 3A 
  1342 00:0367: 20 25 64 0A  	db	$20,$25,$64,$0A,$0A,$00
       00:036B: 0A 00 
  1343 00:036D:              	ends
  1344                        	code
  1345                        	xdef	__test
  1346                        	func
  1347                        __test:
  1348                        	longa	on
  1349                        	longi	on
  1350 00:07CD: 3B           	tsc
  1351 00:07CE: 38           	sec
  1352 00:07CF: E9 4A 00     	sbc	#L49
  1353 00:07D2: 1B           	tcs
  1354 00:07D3: 0B           	phd
  1355 00:07D4: 5B           	tcd
  1356             00000003   opcode_0	set	3
  1357             00000005   testname_0	set	5
  1358             00000000   testresult_1	set	0
  1359 00:07D5: 64 05        	stz	<L50+testresult_1
  1360 00:07D7: F4 44 01     	pea	#<$144
  1361 00:07DA: F4 00 00     	pea	#<$0
  1362 00:07DD: F4 xx xx     	pea	#<__core
  1363 00:07E0: 20 xx xx     	jsr	__memset
  1364 00:07E3: A5 4D        	lda	<L49+opcode_0
  1365 00:07E5: 29 FF 00     	and	#$ff
  1366                        	xref	__~swt
  1367 00:07E8: 20 xx xx     	jsr	__~swt
  1368 00:07EB: 3D 00        	dw	61
  Tue Jun 17 2025  1:16                                                                                                    Page 27


  1369 00:07ED: 00 00        	dw	0
  1370 00:07EF: xx xx        	dw	L10011-1
  1371 00:07F1: 11 00        	dw	17
  1372 00:07F3: xx xx        	dw	L10013-1
  1373 00:07F5: 12 00        	dw	18
  1374 00:07F7: xx xx        	dw	L10015-1
  1375 00:07F9: 13 00        	dw	19
  1376 00:07FB: xx xx        	dw	L10017-1
  1377 00:07FD: 14 00        	dw	20
  1378 00:07FF: xx xx        	dw	L10019-1
  1379 00:0801: 15 00        	dw	21
  1380 00:0803: xx xx        	dw	L10021-1
  1381 00:0805: 16 00        	dw	22
  1382 00:0807: xx xx        	dw	L10023-1
  1383 00:0809: 18 00        	dw	24
  1384 00:080B: xx xx        	dw	L10025-1
  1385 00:080D: 1A 00        	dw	26
  1386 00:080F: xx xx        	dw	L10027-1
  1387 00:0811: 1B 00        	dw	27
  1388 00:0813: xx xx        	dw	L10029-1
  1389 00:0815: 1E 00        	dw	30
  1390 00:0817: xx xx        	dw	L10031-1
  1391 00:0819: 21 00        	dw	33
  1392 00:081B: xx xx        	dw	L10059-1
  1393 00:081D: 23 00        	dw	35
  1394 00:081F: xx xx        	dw	L10061-1
  1395 00:0821: 24 00        	dw	36
  1396 00:0823: xx xx        	dw	L10063-1
  1397 00:0825: 25 00        	dw	37
  1398 00:0827: xx xx        	dw	L10065-1
  1399 00:0829: 26 00        	dw	38
  1400 00:082B: xx xx        	dw	L10067-1
  1401 00:082D: 27 00        	dw	39
  1402 00:082F: xx xx        	dw	L10069-1
  1403 00:0831: 28 00        	dw	40
  1404 00:0833: xx xx        	dw	L10071-1
  1405 00:0835: 31 00        	dw	49
  1406 00:0837: xx xx        	dw	L10041-1
  1407 00:0839: 32 00        	dw	50
  1408 00:083B: xx xx        	dw	L10043-1
  1409 00:083D: 33 00        	dw	51
  1410 00:083F: xx xx        	dw	L10045-1
  1411 00:0841: 34 00        	dw	52
  1412 00:0843: xx xx        	dw	L10047-1
  1413 00:0845: 35 00        	dw	53
  1414 00:0847: xx xx        	dw	L10049-1
  1415 00:0849: 36 00        	dw	54
  1416 00:084B: xx xx        	dw	L10051-1
  1417 00:084D: 38 00        	dw	56
  1418 00:084F: xx xx        	dw	L10053-1
  1419 00:0851: 3A 00        	dw	58
  1420 00:0853: xx xx        	dw	L10055-1
  1421 00:0855: 3B 00        	dw	59
  1422 00:0857: xx xx        	dw	L10057-1
  1423 00:0859: 40 00        	dw	64
  1424 00:085B: xx xx        	dw	L10131-1
  1425 00:085D: 51 00        	dw	81
  1426 00:085F: xx xx        	dw	L10089-1
  Tue Jun 17 2025  1:16                                                                                                    Page 28


  1427 00:0861: 52 00        	dw	82
  1428 00:0863: xx xx        	dw	L10091-1
  1429 00:0865: 54 00        	dw	84
  1430 00:0867: xx xx        	dw	L10093-1
  1431 00:0869: 66 00        	dw	102
  1432 00:086B: xx xx        	dw	L10039-1
  1433 00:086D: 71 00        	dw	113
  1434 00:086F: xx xx        	dw	L10033-1
  1435 00:0871: 7A 00        	dw	122
  1436 00:0873: xx xx        	dw	L10035-1
  1437 00:0875: 7F 00        	dw	127
  1438 00:0877: xx xx        	dw	L10037-1
  1439 00:0879: 81 00        	dw	129
  1440 00:087B: xx xx        	dw	L10119-1
  1441 00:087D: 82 00        	dw	130
  1442 00:087F: xx xx        	dw	L10121-1
  1443 00:0881: 83 00        	dw	131
  1444 00:0883: xx xx        	dw	L10123-1
  1445 00:0885: 84 00        	dw	132
  1446 00:0887: xx xx        	dw	L10125-1
  1447 00:0889: 85 00        	dw	133
  1448 00:088B: xx xx        	dw	L10127-1
  1449 00:088D: 86 00        	dw	134
  1450 00:088F: xx xx        	dw	L10129-1
  1451 00:0891: AB 00        	dw	171
  1452 00:0893: xx xx        	dw	L10095-1
  1453 00:0895: AD 00        	dw	173
  1454 00:0897: xx xx        	dw	L10097-1
  1455 00:0899: B1 00        	dw	177
  1456 00:089B: xx xx        	dw	L10099-1
  1457 00:089D: B2 00        	dw	178
  1458 00:089F: xx xx        	dw	L10101-1
  1459 00:08A1: B3 00        	dw	179
  1460 00:08A3: xx xx        	dw	L10103-1
  1461 00:08A5: B4 00        	dw	180
  1462 00:08A7: xx xx        	dw	L10105-1
  1463 00:08A9: B5 00        	dw	181
  1464 00:08AB: xx xx        	dw	L10107-1
  1465 00:08AD: B6 00        	dw	182
  1466 00:08AF: xx xx        	dw	L10109-1
  1467 00:08B1: BA 00        	dw	186
  1468 00:08B3: xx xx        	dw	L10111-1
  1469 00:08B5: BB 00        	dw	187
  1470 00:08B7: xx xx        	dw	L10113-1
  1471 00:08B9: BC 00        	dw	188
  1472 00:08BB: xx xx        	dw	L10115-1
  1473 00:08BD: BD 00        	dw	189
  1474 00:08BF: xx xx        	dw	L10117-1
  1475 00:08C1: C1 00        	dw	193
  1476 00:08C3: xx xx        	dw	L10073-1
  1477 00:08C5: C3 00        	dw	195
  1478 00:08C7: xx xx        	dw	L10075-1
  1479 00:08C9: C4 00        	dw	196
  1480 00:08CB: xx xx        	dw	L10077-1
  1481 00:08CD: C6 00        	dw	198
  1482 00:08CF: xx xx        	dw	L10079-1
  1483 00:08D1: D0 00        	dw	208
  1484 00:08D3: xx xx        	dw	L10083-1
  Tue Jun 17 2025  1:16                                                                                                    Page 29


  1485 00:08D5: DD 00        	dw	221
  1486 00:08D7: xx xx        	dw	L10081-1
  1487 00:08D9: DE 00        	dw	222
  1488 00:08DB: xx xx        	dw	L10085-1
  1489 00:08DD: DF 00        	dw	223
  1490 00:08DF: xx xx        	dw	L10087-1
  1491 00:08E1: xx xx        	dw	L10133-1
  1492                        L10011:
  1493             00000002   tpOP00_NOP_2	set	2
  1494 00:08E3: F4 xx xx     	pea	#<L51
  1495 00:08E6: 18           	clc
  1496 00:08E7: 7B           	tdc
  1497 00:08E8: 69 07 00     	adc	#<L50+tpOP00_NOP_2
  1498 00:08EB: 48           	pha
  1499 00:08EC: A9 04 00     	lda	#$4
  1500                        	xref	__~mov
  1501 00:08EF: 20 xx xx     	jsr	__~mov
  1502 00:08F2: F4 04 00     	pea	#<$4
  1503 00:08F5: 18           	clc
  1504 00:08F6: 7B           	tdc
  1505 00:08F7: 69 07 00     	adc	#<L50+tpOP00_NOP_2
  1506 00:08FA: 48           	pha
  1507 00:08FB: 20 xx xx     	jsr	__vmex
  1508 00:08FE: 85 05        	sta	<L50+testresult_1
  1509 00:0900: D4 4F        	pei	<L49+testname_0
  1510 00:0902: D4 05        	pei	<L50+testresult_1
  1511 00:0904: F4 xx xx     	pea	#<L48
  1512                        L20183:
  1513 00:0907: F4 08 00     	pea	#8
  1514 00:090A: 20 xx xx     	jsr	__printf
  1515 00:090D: A5 05        	lda	<L50+testresult_1
  1516 00:090F: D0 03        	bne	*+5
  1517 00:0911: 82 4C 09     	brl	L10012
  1518                        L20001:
  1519 00:0914: A9 01 00     	lda	#$1
  1520                        L53:
  1521 00:0917: A8           	tay
  1522 00:0918: A5 4B        	lda	<L49+1
  1523 00:091A: 85 4F        	sta	<L49+1+4
  1524 00:091C: 2B           	pld
  1525 00:091D: 3B           	tsc
  1526 00:091E: 18           	clc
  1527 00:091F: 69 4E 00     	adc	#L49+4
  1528 00:0922: 1B           	tcs
  1529 00:0923: 98           	tya
  1530 00:0924: 60           	rts
  1531                        L10013:
  1532             00000002   tpOPI11_ADDI_3	set	2
  1533 00:0925: F4 xx xx     	pea	#<L54
  1534 00:0928: 18           	clc
  1535 00:0929: 7B           	tdc
  1536 00:092A: 69 07 00     	adc	#<L50+tpOPI11_ADDI_3
  1537 00:092D: 48           	pha
  1538 00:092E: A9 2C 00     	lda	#$2c
  1539                        	xref	__~mov
  1540 00:0931: 20 xx xx     	jsr	__~mov
  1541 00:0934: F4 2C 00     	pea	#<$2c
  1542 00:0937: 18           	clc
  Tue Jun 17 2025  1:16                                                                                                    Page 30


  1543 00:0938: 7B           	tdc
  1544 00:0939: 69 07 00     	adc	#<L50+tpOPI11_ADDI_3
  1545 00:093C: 48           	pha
  1546 00:093D: 20 xx xx     	jsr	__vmex
  1547 00:0940: 85 05        	sta	<L50+testresult_1
  1548 00:0942: D4 4F        	pei	<L49+testname_0
  1549 00:0944: D4 05        	pei	<L50+testresult_1
  1550 00:0946: F4 xx xx     	pea	#<L48+9
  1551 00:0949: 80 BC        	bra	L20183
  1552                        L10015:
  1553             00000002   tpOPI12_SUBI_4	set	2
  1554 00:094B: F4 xx xx     	pea	#<L56
  1555 00:094E: 18           	clc
  1556 00:094F: 7B           	tdc
  1557 00:0950: 69 07 00     	adc	#<L50+tpOPI12_SUBI_4
  1558 00:0953: 48           	pha
  1559 00:0954: A9 2C 00     	lda	#$2c
  1560                        	xref	__~mov
  1561 00:0957: 20 xx xx     	jsr	__~mov
  1562 00:095A: F4 2C 00     	pea	#<$2c
  1563 00:095D: 18           	clc
  1564 00:095E: 7B           	tdc
  1565 00:095F: 69 07 00     	adc	#<L50+tpOPI12_SUBI_4
  1566 00:0962: 48           	pha
  1567 00:0963: 20 xx xx     	jsr	__vmex
  1568 00:0966: 85 05        	sta	<L50+testresult_1
  1569 00:0968: D4 4F        	pei	<L49+testname_0
  1570 00:096A: D4 05        	pei	<L50+testresult_1
  1571 00:096C: F4 xx xx     	pea	#<L48+18
  1572 00:096F: 80 96        	bra	L20183
  1573                        L10017:
  1574             00000002   tpOPI13_XORI_5	set	2
  1575 00:0971: F4 xx xx     	pea	#<L58
  1576 00:0974: 18           	clc
  1577 00:0975: 7B           	tdc
  1578 00:0976: 69 07 00     	adc	#<L50+tpOPI13_XORI_5
  1579 00:0979: 48           	pha
  1580 00:097A: A9 0C 00     	lda	#$c
  1581                        	xref	__~mov
  1582 00:097D: 20 xx xx     	jsr	__~mov
  1583 00:0980: F4 0C 00     	pea	#<$c
  1584 00:0983: 18           	clc
  1585 00:0984: 7B           	tdc
  1586 00:0985: 69 07 00     	adc	#<L50+tpOPI13_XORI_5
  1587 00:0988: 48           	pha
  1588 00:0989: 20 xx xx     	jsr	__vmex
  1589 00:098C: 85 05        	sta	<L50+testresult_1
  1590 00:098E: D4 4F        	pei	<L49+testname_0
  1591 00:0990: D4 05        	pei	<L50+testresult_1
  1592 00:0992: F4 xx xx     	pea	#<L48+27
  1593 00:0995: 82 6F FF     	brl	L20183
  1594                        L10019:
  1595             00000002   tpOPI14_ANDI_6	set	2
  1596 00:0998: F4 xx xx     	pea	#<L60
  1597 00:099B: 18           	clc
  1598 00:099C: 7B           	tdc
  1599 00:099D: 69 07 00     	adc	#<L50+tpOPI14_ANDI_6
  1600 00:09A0: 48           	pha
  Tue Jun 17 2025  1:16                                                                                                    Page 31


  1601 00:09A1: A9 0C 00     	lda	#$c
  1602                        	xref	__~mov
  1603 00:09A4: 20 xx xx     	jsr	__~mov
  1604 00:09A7: F4 0C 00     	pea	#<$c
  1605 00:09AA: 18           	clc
  1606 00:09AB: 7B           	tdc
  1607 00:09AC: 69 07 00     	adc	#<L50+tpOPI14_ANDI_6
  1608 00:09AF: 48           	pha
  1609 00:09B0: 20 xx xx     	jsr	__vmex
  1610 00:09B3: 85 05        	sta	<L50+testresult_1
  1611 00:09B5: D4 4F        	pei	<L49+testname_0
  1612 00:09B7: D4 05        	pei	<L50+testresult_1
  1613 00:09B9: F4 xx xx     	pea	#<L48+36
  1614 00:09BC: 82 48 FF     	brl	L20183
  1615                        L10021:
  1616             00000002   tpOPI15_ORI_7	set	2
  1617 00:09BF: F4 xx xx     	pea	#<L62
  1618 00:09C2: 18           	clc
  1619 00:09C3: 7B           	tdc
  1620 00:09C4: 69 07 00     	adc	#<L50+tpOPI15_ORI_7
  1621 00:09C7: 48           	pha
  1622 00:09C8: A9 0C 00     	lda	#$c
  1623                        	xref	__~mov
  1624 00:09CB: 20 xx xx     	jsr	__~mov
  1625 00:09CE: F4 0C 00     	pea	#<$c
  1626 00:09D1: 18           	clc
  1627 00:09D2: 7B           	tdc
  1628 00:09D3: 69 07 00     	adc	#<L50+tpOPI15_ORI_7
  1629 00:09D6: 48           	pha
  1630 00:09D7: 20 xx xx     	jsr	__vmex
  1631 00:09DA: 85 05        	sta	<L50+testresult_1
  1632 00:09DC: D4 4F        	pei	<L49+testname_0
  1633 00:09DE: D4 05        	pei	<L50+testresult_1
  1634 00:09E0: F4 xx xx     	pea	#<L48+45
  1635 00:09E3: 82 21 FF     	brl	L20183
  1636                        L10023:
  1637             00000002   tpOPI16_SLLI_8	set	2
  1638 00:09E6: F4 xx xx     	pea	#<L64
  1639 00:09E9: 18           	clc
  1640 00:09EA: 7B           	tdc
  1641 00:09EB: 69 07 00     	adc	#<L50+tpOPI16_SLLI_8
  1642 00:09EE: 48           	pha
  1643 00:09EF: A9 10 00     	lda	#$10
  1644                        	xref	__~mov
  1645 00:09F2: 20 xx xx     	jsr	__~mov
  1646 00:09F5: F4 10 00     	pea	#<$10
  1647 00:09F8: 18           	clc
  1648 00:09F9: 7B           	tdc
  1649 00:09FA: 69 07 00     	adc	#<L50+tpOPI16_SLLI_8
  1650 00:09FD: 48           	pha
  1651 00:09FE: 20 xx xx     	jsr	__vmex
  1652 00:0A01: 85 05        	sta	<L50+testresult_1
  1653 00:0A03: D4 4F        	pei	<L49+testname_0
  1654 00:0A05: D4 05        	pei	<L50+testresult_1
  1655 00:0A07: F4 xx xx     	pea	#<L48+54
  1656 00:0A0A: 82 FA FE     	brl	L20183
  1657                        L10025:
  1658             00000002   tpOPI18_SRAI_9	set	2
  Tue Jun 17 2025  1:16                                                                                                    Page 32


  1659 00:0A0D: F4 xx xx     	pea	#<L66
  1660 00:0A10: 18           	clc
  1661 00:0A11: 7B           	tdc
  1662 00:0A12: 69 07 00     	adc	#<L50+tpOPI18_SRAI_9
  1663 00:0A15: 48           	pha
  1664 00:0A16: A9 10 00     	lda	#$10
  1665                        	xref	__~mov
  1666 00:0A19: 20 xx xx     	jsr	__~mov
  1667 00:0A1C: F4 10 00     	pea	#<$10
  1668 00:0A1F: 18           	clc
  1669 00:0A20: 7B           	tdc
  1670 00:0A21: 69 07 00     	adc	#<L50+tpOPI18_SRAI_9
  1671 00:0A24: 48           	pha
  1672 00:0A25: 20 xx xx     	jsr	__vmex
  1673 00:0A28: 85 05        	sta	<L50+testresult_1
  1674 00:0A2A: D4 4F        	pei	<L49+testname_0
  1675 00:0A2C: D4 05        	pei	<L50+testresult_1
  1676 00:0A2E: F4 xx xx     	pea	#<L48+63
  1677 00:0A31: 82 D3 FE     	brl	L20183
  1678                        L10027:
  1679             00000002   tpOPI1A_CLTI_10	set	2
  1680 00:0A34: F4 xx xx     	pea	#<L68
  1681 00:0A37: 18           	clc
  1682 00:0A38: 7B           	tdc
  1683 00:0A39: 69 07 00     	adc	#<L50+tpOPI1A_CLTI_10
  1684 00:0A3C: 48           	pha
  1685 00:0A3D: A9 24 00     	lda	#$24
  1686                        	xref	__~mov
  1687 00:0A40: 20 xx xx     	jsr	__~mov
  1688 00:0A43: F4 24 00     	pea	#<$24
  1689 00:0A46: 18           	clc
  1690 00:0A47: 7B           	tdc
  1691 00:0A48: 69 07 00     	adc	#<L50+tpOPI1A_CLTI_10
  1692 00:0A4B: 48           	pha
  1693 00:0A4C: 20 xx xx     	jsr	__vmex
  1694 00:0A4F: 85 05        	sta	<L50+testresult_1
  1695 00:0A51: D4 4F        	pei	<L49+testname_0
  1696 00:0A53: D4 05        	pei	<L50+testresult_1
  1697 00:0A55: F4 xx xx     	pea	#<L48+72
  1698 00:0A58: 82 AC FE     	brl	L20183
  1699                        L10029:
  1700             00000002   tpOPI1B_CLTIU_11	set	2
  1701 00:0A5B: F4 xx xx     	pea	#<L70
  1702 00:0A5E: 18           	clc
  1703 00:0A5F: 7B           	tdc
  1704 00:0A60: 69 07 00     	adc	#<L50+tpOPI1B_CLTIU_11
  1705 00:0A63: 48           	pha
  1706 00:0A64: A9 0C 00     	lda	#$c
  1707                        	xref	__~mov
  1708 00:0A67: 20 xx xx     	jsr	__~mov
  1709 00:0A6A: F4 0C 00     	pea	#<$c
  1710 00:0A6D: 18           	clc
  1711 00:0A6E: 7B           	tdc
  1712 00:0A6F: 69 07 00     	adc	#<L50+tpOPI1B_CLTIU_11
  1713 00:0A72: 48           	pha
  1714 00:0A73: 20 xx xx     	jsr	__vmex
  1715 00:0A76: 85 05        	sta	<L50+testresult_1
  1716 00:0A78: D4 4F        	pei	<L49+testname_0
  Tue Jun 17 2025  1:16                                                                                                    Page 33


  1717 00:0A7A: D4 05        	pei	<L50+testresult_1
  1718 00:0A7C: F4 xx xx     	pea	#<L48+81
  1719 00:0A7F: 82 85 FE     	brl	L20183
  1720                        L10031:
  1721             00000002   tpOPI1E_LI_12	set	2
  1722 00:0A82: F4 xx xx     	pea	#<L72
  1723 00:0A85: 18           	clc
  1724 00:0A86: 7B           	tdc
  1725 00:0A87: 69 07 00     	adc	#<L50+tpOPI1E_LI_12
  1726 00:0A8A: 48           	pha
  1727 00:0A8B: A9 2C 00     	lda	#$2c
  1728                        	xref	__~mov
  1729 00:0A8E: 20 xx xx     	jsr	__~mov
  1730 00:0A91: F4 2C 00     	pea	#<$2c
  1731 00:0A94: 18           	clc
  1732 00:0A95: 7B           	tdc
  1733 00:0A96: 69 07 00     	adc	#<L50+tpOPI1E_LI_12
  1734 00:0A99: 48           	pha
  1735 00:0A9A: 20 xx xx     	jsr	__vmex
  1736 00:0A9D: 85 05        	sta	<L50+testresult_1
  1737 00:0A9F: D4 4F        	pei	<L49+testname_0
  1738 00:0AA1: D4 05        	pei	<L50+testresult_1
  1739 00:0AA3: F4 xx xx     	pea	#<L48+90
  1740 00:0AA6: 82 5E FE     	brl	L20183
  1741                        L10033:
  1742             00000002   tpOPU71_LUI_13	set	2
  1743 00:0AA9: F4 xx xx     	pea	#<L74
  1744 00:0AAC: 18           	clc
  1745 00:0AAD: 7B           	tdc
  1746 00:0AAE: 69 07 00     	adc	#<L50+tpOPU71_LUI_13
  1747 00:0AB1: 48           	pha
  1748 00:0AB2: A9 0C 00     	lda	#$c
  1749                        	xref	__~mov
  1750 00:0AB5: 20 xx xx     	jsr	__~mov
  1751 00:0AB8: F4 0C 00     	pea	#<$c
  1752 00:0ABB: 18           	clc
  1753 00:0ABC: 7B           	tdc
  1754 00:0ABD: 69 07 00     	adc	#<L50+tpOPU71_LUI_13
  1755 00:0AC0: 48           	pha
  1756 00:0AC1: 20 xx xx     	jsr	__vmex
  1757 00:0AC4: 85 05        	sta	<L50+testresult_1
  1758 00:0AC6: D4 4F        	pei	<L49+testname_0
  1759 00:0AC8: D4 05        	pei	<L50+testresult_1
  1760 00:0ACA: F4 xx xx     	pea	#<L48+99
  1761 00:0ACD: 82 37 FE     	brl	L20183
  1762                        L10035:
  1763             00000002   tpOPU7A_AUIPC_14	set	2
  1764 00:0AD0: F4 xx xx     	pea	#<L76
  1765 00:0AD3: 18           	clc
  1766 00:0AD4: 7B           	tdc
  1767 00:0AD5: 69 07 00     	adc	#<L50+tpOPU7A_AUIPC_14
  1768 00:0AD8: 48           	pha
  1769 00:0AD9: A9 1C 00     	lda	#$1c
  1770                        	xref	__~mov
  1771 00:0ADC: 20 xx xx     	jsr	__~mov
  1772 00:0ADF: F4 1C 00     	pea	#<$1c
  1773 00:0AE2: 18           	clc
  1774 00:0AE3: 7B           	tdc
  Tue Jun 17 2025  1:16                                                                                                    Page 34


  1775 00:0AE4: 69 07 00     	adc	#<L50+tpOPU7A_AUIPC_14
  1776 00:0AE7: 48           	pha
  1777 00:0AE8: 20 xx xx     	jsr	__vmex
  1778 00:0AEB: 85 05        	sta	<L50+testresult_1
  1779 00:0AED: D4 4F        	pei	<L49+testname_0
  1780 00:0AEF: D4 05        	pei	<L50+testresult_1
  1781 00:0AF1: F4 xx xx     	pea	#<L48+108
  1782 00:0AF4: 82 10 FE     	brl	L20183
  1783                        L10037:
  1784             00000002   tpOPU7F_JAL_15	set	2
  1785 00:0AF7: F4 xx xx     	pea	#<L78
  1786 00:0AFA: 18           	clc
  1787 00:0AFB: 7B           	tdc
  1788 00:0AFC: 69 07 00     	adc	#<L50+tpOPU7F_JAL_15
  1789 00:0AFF: 48           	pha
  1790 00:0B00: A9 44 00     	lda	#$44
  1791                        	xref	__~mov
  1792 00:0B03: 20 xx xx     	jsr	__~mov
  1793 00:0B06: F4 44 00     	pea	#<$44
  1794 00:0B09: 18           	clc
  1795 00:0B0A: 7B           	tdc
  1796 00:0B0B: 69 07 00     	adc	#<L50+tpOPU7F_JAL_15
  1797 00:0B0E: 48           	pha
  1798 00:0B0F: 20 xx xx     	jsr	__vmex
  1799 00:0B12: 85 05        	sta	<L50+testresult_1
  1800 00:0B14: D4 4F        	pei	<L49+testname_0
  1801 00:0B16: D4 05        	pei	<L50+testresult_1
  1802 00:0B18: F4 xx xx     	pea	#<L48+117
  1803 00:0B1B: 82 E9 FD     	brl	L20183
  1804                        L10039:
  1805             00000002   tpOPU66_GOTO_16	set	2
  1806 00:0B1E: F4 xx xx     	pea	#<L80
  1807 00:0B21: 18           	clc
  1808 00:0B22: 7B           	tdc
  1809 00:0B23: 69 07 00     	adc	#<L50+tpOPU66_GOTO_16
  1810 00:0B26: 48           	pha
  1811 00:0B27: A9 44 00     	lda	#$44
  1812                        	xref	__~mov
  1813 00:0B2A: 20 xx xx     	jsr	__~mov
  1814 00:0B2D: F4 44 00     	pea	#<$44
  1815 00:0B30: 18           	clc
  1816 00:0B31: 7B           	tdc
  1817 00:0B32: 69 07 00     	adc	#<L50+tpOPU66_GOTO_16
  1818 00:0B35: 48           	pha
  1819 00:0B36: 20 xx xx     	jsr	__vmex
  1820 00:0B39: 85 05        	sta	<L50+testresult_1
  1821 00:0B3B: D4 4F        	pei	<L49+testname_0
  1822 00:0B3D: D4 05        	pei	<L50+testresult_1
  1823 00:0B3F: F4 xx xx     	pea	#<L48+126
  1824 00:0B42: 82 C2 FD     	brl	L20183
  1825                        L10041:
  1826             00000002   tpOPR31_ADD_17	set	2
  1827 00:0B45: F4 xx xx     	pea	#<L82
  1828 00:0B48: 18           	clc
  1829 00:0B49: 7B           	tdc
  1830 00:0B4A: 69 07 00     	adc	#<L50+tpOPR31_ADD_17
  1831 00:0B4D: 48           	pha
  1832 00:0B4E: A9 24 00     	lda	#$24
  Tue Jun 17 2025  1:16                                                                                                    Page 35


  1833                        	xref	__~mov
  1834 00:0B51: 20 xx xx     	jsr	__~mov
  1835 00:0B54: F4 24 00     	pea	#<$24
  1836 00:0B57: 18           	clc
  1837 00:0B58: 7B           	tdc
  1838 00:0B59: 69 07 00     	adc	#<L50+tpOPR31_ADD_17
  1839 00:0B5C: 48           	pha
  1840 00:0B5D: 20 xx xx     	jsr	__vmex
  1841 00:0B60: 85 05        	sta	<L50+testresult_1
  1842 00:0B62: D4 4F        	pei	<L49+testname_0
  1843 00:0B64: D4 05        	pei	<L50+testresult_1
  1844 00:0B66: F4 xx xx     	pea	#<L48+135
  1845 00:0B69: 82 9B FD     	brl	L20183
  1846                        L10043:
  1847             00000002   tpOPR32_SUB_18	set	2
  1848 00:0B6C: F4 xx xx     	pea	#<L84
  1849 00:0B6F: 18           	clc
  1850 00:0B70: 7B           	tdc
  1851 00:0B71: 69 07 00     	adc	#<L50+tpOPR32_SUB_18
  1852 00:0B74: 48           	pha
  1853 00:0B75: A9 14 00     	lda	#$14
  1854                        	xref	__~mov
  1855 00:0B78: 20 xx xx     	jsr	__~mov
  1856 00:0B7B: F4 14 00     	pea	#<$14
  1857 00:0B7E: 18           	clc
  1858 00:0B7F: 7B           	tdc
  1859 00:0B80: 69 07 00     	adc	#<L50+tpOPR32_SUB_18
  1860 00:0B83: 48           	pha
  1861 00:0B84: 20 xx xx     	jsr	__vmex
  1862 00:0B87: 85 05        	sta	<L50+testresult_1
  1863 00:0B89: D4 4F        	pei	<L49+testname_0
  1864 00:0B8B: D4 05        	pei	<L50+testresult_1
  1865 00:0B8D: F4 xx xx     	pea	#<L48+144
  1866 00:0B90: 82 74 FD     	brl	L20183
  1867                        L10045:
  1868             00000002   tpOPR33_XOR_19	set	2
  1869 00:0B93: F4 xx xx     	pea	#<L86
  1870 00:0B96: 18           	clc
  1871 00:0B97: 7B           	tdc
  1872 00:0B98: 69 07 00     	adc	#<L50+tpOPR33_XOR_19
  1873 00:0B9B: 48           	pha
  1874 00:0B9C: A9 14 00     	lda	#$14
  1875                        	xref	__~mov
  1876 00:0B9F: 20 xx xx     	jsr	__~mov
  1877 00:0BA2: F4 14 00     	pea	#<$14
  1878 00:0BA5: 18           	clc
  1879 00:0BA6: 7B           	tdc
  1880 00:0BA7: 69 07 00     	adc	#<L50+tpOPR33_XOR_19
  1881 00:0BAA: 48           	pha
  1882 00:0BAB: 20 xx xx     	jsr	__vmex
  1883 00:0BAE: 85 05        	sta	<L50+testresult_1
  1884 00:0BB0: D4 4F        	pei	<L49+testname_0
  1885 00:0BB2: D4 05        	pei	<L50+testresult_1
  1886 00:0BB4: F4 xx xx     	pea	#<L48+153
  1887 00:0BB7: 82 4D FD     	brl	L20183
  1888                        L10047:
  1889             00000002   tpOPR34_AND_20	set	2
  1890 00:0BBA: F4 xx xx     	pea	#<L88
  Tue Jun 17 2025  1:16                                                                                                    Page 36


  1891 00:0BBD: 18           	clc
  1892 00:0BBE: 7B           	tdc
  1893 00:0BBF: 69 07 00     	adc	#<L50+tpOPR34_AND_20
  1894 00:0BC2: 48           	pha
  1895 00:0BC3: A9 14 00     	lda	#$14
  1896                        	xref	__~mov
  1897 00:0BC6: 20 xx xx     	jsr	__~mov
  1898 00:0BC9: F4 14 00     	pea	#<$14
  1899 00:0BCC: 18           	clc
  1900 00:0BCD: 7B           	tdc
  1901 00:0BCE: 69 07 00     	adc	#<L50+tpOPR34_AND_20
  1902 00:0BD1: 48           	pha
  1903 00:0BD2: 20 xx xx     	jsr	__vmex
  1904 00:0BD5: 85 05        	sta	<L50+testresult_1
  1905 00:0BD7: D4 4F        	pei	<L49+testname_0
  1906 00:0BD9: D4 05        	pei	<L50+testresult_1
  1907 00:0BDB: F4 xx xx     	pea	#<L48+162
  1908 00:0BDE: 82 26 FD     	brl	L20183
  1909                        L10049:
  1910             00000002   tpOPR35_OR_21	set	2
  1911 00:0BE1: F4 xx xx     	pea	#<L90
  1912 00:0BE4: 18           	clc
  1913 00:0BE5: 7B           	tdc
  1914 00:0BE6: 69 07 00     	adc	#<L50+tpOPR35_OR_21
  1915 00:0BE9: 48           	pha
  1916 00:0BEA: A9 14 00     	lda	#$14
  1917                        	xref	__~mov
  1918 00:0BED: 20 xx xx     	jsr	__~mov
  1919 00:0BF0: F4 14 00     	pea	#<$14
  1920 00:0BF3: 18           	clc
  1921 00:0BF4: 7B           	tdc
  1922 00:0BF5: 69 07 00     	adc	#<L50+tpOPR35_OR_21
  1923 00:0BF8: 48           	pha
  1924 00:0BF9: 20 xx xx     	jsr	__vmex
  1925 00:0BFC: 85 05        	sta	<L50+testresult_1
  1926 00:0BFE: D4 4F        	pei	<L49+testname_0
  1927 00:0C00: D4 05        	pei	<L50+testresult_1
  1928 00:0C02: F4 xx xx     	pea	#<L48+171
  1929 00:0C05: 82 FF FC     	brl	L20183
  1930                        L10051:
  1931             00000002   tpOPR36_SLL_22	set	2
  1932 00:0C08: F4 xx xx     	pea	#<L92
  1933 00:0C0B: 18           	clc
  1934 00:0C0C: 7B           	tdc
  1935 00:0C0D: 69 07 00     	adc	#<L50+tpOPR36_SLL_22
  1936 00:0C10: 48           	pha
  1937 00:0C11: A9 18 00     	lda	#$18
  1938                        	xref	__~mov
  1939 00:0C14: 20 xx xx     	jsr	__~mov
  1940 00:0C17: F4 18 00     	pea	#<$18
  1941 00:0C1A: 18           	clc
  1942 00:0C1B: 7B           	tdc
  1943 00:0C1C: 69 07 00     	adc	#<L50+tpOPR36_SLL_22
  1944 00:0C1F: 48           	pha
  1945 00:0C20: 20 xx xx     	jsr	__vmex
  1946 00:0C23: 85 05        	sta	<L50+testresult_1
  1947 00:0C25: D4 4F        	pei	<L49+testname_0
  1948 00:0C27: D4 05        	pei	<L50+testresult_1
  Tue Jun 17 2025  1:16                                                                                                    Page 37


  1949 00:0C29: F4 xx xx     	pea	#<L48+180
  1950 00:0C2C: 82 D8 FC     	brl	L20183
  1951                        L10053:
  1952             00000002   tpOPR38_SRA_23	set	2
  1953 00:0C2F: F4 xx xx     	pea	#<L94
  1954 00:0C32: 18           	clc
  1955 00:0C33: 7B           	tdc
  1956 00:0C34: 69 07 00     	adc	#<L50+tpOPR38_SRA_23
  1957 00:0C37: 48           	pha
  1958 00:0C38: A9 14 00     	lda	#$14
  1959                        	xref	__~mov
  1960 00:0C3B: 20 xx xx     	jsr	__~mov
  1961 00:0C3E: F4 14 00     	pea	#<$14
  1962 00:0C41: 18           	clc
  1963 00:0C42: 7B           	tdc
  1964 00:0C43: 69 07 00     	adc	#<L50+tpOPR38_SRA_23
  1965 00:0C46: 48           	pha
  1966 00:0C47: 20 xx xx     	jsr	__vmex
  1967 00:0C4A: 85 05        	sta	<L50+testresult_1
  1968 00:0C4C: D4 4F        	pei	<L49+testname_0
  1969 00:0C4E: D4 05        	pei	<L50+testresult_1
  1970 00:0C50: F4 xx xx     	pea	#<L48+189
  1971 00:0C53: 82 B1 FC     	brl	L20183
  1972                        L10055:
  1973             00000002   tpOPR3A_CLT_24	set	2
  1974 00:0C56: F4 xx xx     	pea	#<L96
  1975 00:0C59: 18           	clc
  1976 00:0C5A: 7B           	tdc
  1977 00:0C5B: 69 07 00     	adc	#<L50+tpOPR3A_CLT_24
  1978 00:0C5E: 48           	pha
  1979 00:0C5F: A9 30 00     	lda	#$30
  1980                        	xref	__~mov
  1981 00:0C62: 20 xx xx     	jsr	__~mov
  1982 00:0C65: F4 30 00     	pea	#<$30
  1983 00:0C68: 18           	clc
  1984 00:0C69: 7B           	tdc
  1985 00:0C6A: 69 07 00     	adc	#<L50+tpOPR3A_CLT_24
  1986 00:0C6D: 48           	pha
  1987 00:0C6E: 20 xx xx     	jsr	__vmex
  1988 00:0C71: 85 05        	sta	<L50+testresult_1
  1989 00:0C73: D4 4F        	pei	<L49+testname_0
  1990 00:0C75: D4 05        	pei	<L50+testresult_1
  1991 00:0C77: F4 xx xx     	pea	#<L48+198
  1992 00:0C7A: 82 8A FC     	brl	L20183
  1993                        L10057:
  1994             00000002   tpOPR3B_CLTU_25	set	2
  1995 00:0C7D: F4 xx xx     	pea	#<L98
  1996 00:0C80: 18           	clc
  1997 00:0C81: 7B           	tdc
  1998 00:0C82: 69 07 00     	adc	#<L50+tpOPR3B_CLTU_25
  1999 00:0C85: 48           	pha
  2000 00:0C86: A9 10 00     	lda	#$10
  2001                        	xref	__~mov
  2002 00:0C89: 20 xx xx     	jsr	__~mov
  2003 00:0C8C: F4 10 00     	pea	#<$10
  2004 00:0C8F: 18           	clc
  2005 00:0C90: 7B           	tdc
  2006 00:0C91: 69 07 00     	adc	#<L50+tpOPR3B_CLTU_25
  Tue Jun 17 2025  1:16                                                                                                    Page 38


  2007 00:0C94: 48           	pha
  2008 00:0C95: 20 xx xx     	jsr	__vmex
  2009 00:0C98: 85 05        	sta	<L50+testresult_1
  2010 00:0C9A: D4 4F        	pei	<L49+testname_0
  2011 00:0C9C: D4 05        	pei	<L50+testresult_1
  2012 00:0C9E: F4 xx xx     	pea	#<L48+207
  2013 00:0CA1: 82 63 FC     	brl	L20183
  2014                        L10059:
  2015             00000002   tpOPR21_MUL_26	set	2
  2016 00:0CA4: F4 xx xx     	pea	#<L100
  2017 00:0CA7: 18           	clc
  2018 00:0CA8: 7B           	tdc
  2019 00:0CA9: 69 07 00     	adc	#<L50+tpOPR21_MUL_26
  2020 00:0CAC: 48           	pha
  2021 00:0CAD: A9 28 00     	lda	#$28
  2022                        	xref	__~mov
  2023 00:0CB0: 20 xx xx     	jsr	__~mov
  2024 00:0CB3: F4 28 00     	pea	#<$28
  2025 00:0CB6: 18           	clc
  2026 00:0CB7: 7B           	tdc
  2027 00:0CB8: 69 07 00     	adc	#<L50+tpOPR21_MUL_26
  2028 00:0CBB: 48           	pha
  2029 00:0CBC: 20 xx xx     	jsr	__vmex
  2030 00:0CBF: 85 05        	sta	<L50+testresult_1
  2031 00:0CC1: D4 4F        	pei	<L49+testname_0
  2032 00:0CC3: D4 05        	pei	<L50+testresult_1
  2033 00:0CC5: F4 xx xx     	pea	#<L48+216
  2034 00:0CC8: 82 3C FC     	brl	L20183
  2035                        L10061:
  2036             00000002   tpOPR23_MULHU_27	set	2
  2037 00:0CCB: F4 xx xx     	pea	#<L102
  2038 00:0CCE: 18           	clc
  2039 00:0CCF: 7B           	tdc
  2040 00:0CD0: 69 07 00     	adc	#<L50+tpOPR23_MULHU_27
  2041 00:0CD3: 48           	pha
  2042 00:0CD4: A9 28 00     	lda	#$28
  2043                        	xref	__~mov
  2044 00:0CD7: 20 xx xx     	jsr	__~mov
  2045 00:0CDA: F4 28 00     	pea	#<$28
  2046 00:0CDD: 18           	clc
  2047 00:0CDE: 7B           	tdc
  2048 00:0CDF: 69 07 00     	adc	#<L50+tpOPR23_MULHU_27
  2049 00:0CE2: 48           	pha
  2050 00:0CE3: 20 xx xx     	jsr	__vmex
  2051 00:0CE6: 85 05        	sta	<L50+testresult_1
  2052 00:0CE8: D4 4F        	pei	<L49+testname_0
  2053 00:0CEA: D4 05        	pei	<L50+testresult_1
  2054 00:0CEC: F4 xx xx     	pea	#<L48+225
  2055 00:0CEF: 82 15 FC     	brl	L20183
  2056                        L10063:
  2057             00000002   tpOPR24_MULHSU_28	set	2
  2058 00:0CF2: F4 xx xx     	pea	#<L104
  2059 00:0CF5: 18           	clc
  2060 00:0CF6: 7B           	tdc
  2061 00:0CF7: 69 07 00     	adc	#<L50+tpOPR24_MULHSU_28
  2062 00:0CFA: 48           	pha
  2063 00:0CFB: A9 28 00     	lda	#$28
  2064                        	xref	__~mov
  Tue Jun 17 2025  1:16                                                                                                    Page 39


  2065 00:0CFE: 20 xx xx     	jsr	__~mov
  2066 00:0D01: F4 28 00     	pea	#<$28
  2067 00:0D04: 18           	clc
  2068 00:0D05: 7B           	tdc
  2069 00:0D06: 69 07 00     	adc	#<L50+tpOPR24_MULHSU_28
  2070 00:0D09: 48           	pha
  2071 00:0D0A: 20 xx xx     	jsr	__vmex
  2072 00:0D0D: 85 05        	sta	<L50+testresult_1
  2073 00:0D0F: D4 4F        	pei	<L49+testname_0
  2074 00:0D11: D4 05        	pei	<L50+testresult_1
  2075 00:0D13: F4 xx xx     	pea	#<L48+234
  2076 00:0D16: 82 EE FB     	brl	L20183
  2077                        L10065:
  2078             00000002   tpOPR25_DIV_29	set	2
  2079 00:0D19: F4 xx xx     	pea	#<L106
  2080 00:0D1C: 18           	clc
  2081 00:0D1D: 7B           	tdc
  2082 00:0D1E: 69 07 00     	adc	#<L50+tpOPR25_DIV_29
  2083 00:0D21: 48           	pha
  2084 00:0D22: A9 1C 00     	lda	#$1c
  2085                        	xref	__~mov
  2086 00:0D25: 20 xx xx     	jsr	__~mov
  2087 00:0D28: F4 1C 00     	pea	#<$1c
  2088 00:0D2B: 18           	clc
  2089 00:0D2C: 7B           	tdc
  2090 00:0D2D: 69 07 00     	adc	#<L50+tpOPR25_DIV_29
  2091 00:0D30: 48           	pha
  2092 00:0D31: 20 xx xx     	jsr	__vmex
  2093 00:0D34: 85 05        	sta	<L50+testresult_1
  2094 00:0D36: D4 4F        	pei	<L49+testname_0
  2095 00:0D38: D4 05        	pei	<L50+testresult_1
  2096 00:0D3A: F4 xx xx     	pea	#<L48+243
  2097 00:0D3D: 82 C7 FB     	brl	L20183
  2098                        L10067:
  2099             00000002   tpOPR26_DIVU_30	set	2
  2100 00:0D40: F4 xx xx     	pea	#<L108
  2101 00:0D43: 18           	clc
  2102 00:0D44: 7B           	tdc
  2103 00:0D45: 69 07 00     	adc	#<L50+tpOPR26_DIVU_30
  2104 00:0D48: 48           	pha
  2105 00:0D49: A9 20 00     	lda	#$20
  2106                        	xref	__~mov
  2107 00:0D4C: 20 xx xx     	jsr	__~mov
  2108 00:0D4F: F4 20 00     	pea	#<$20
  2109 00:0D52: 18           	clc
  2110 00:0D53: 7B           	tdc
  2111 00:0D54: 69 07 00     	adc	#<L50+tpOPR26_DIVU_30
  2112 00:0D57: 48           	pha
  2113 00:0D58: 20 xx xx     	jsr	__vmex
  2114 00:0D5B: 85 05        	sta	<L50+testresult_1
  2115 00:0D5D: D4 4F        	pei	<L49+testname_0
  2116 00:0D5F: D4 05        	pei	<L50+testresult_1
  2117 00:0D61: F4 xx xx     	pea	#<L48+252
  2118 00:0D64: 82 A0 FB     	brl	L20183
  2119                        L10069:
  2120             00000002   tpOPR27_REM_31	set	2
  2121 00:0D67: F4 xx xx     	pea	#<L110
  2122 00:0D6A: 18           	clc
  Tue Jun 17 2025  1:16                                                                                                    Page 40


  2123 00:0D6B: 7B           	tdc
  2124 00:0D6C: 69 07 00     	adc	#<L50+tpOPR27_REM_31
  2125 00:0D6F: 48           	pha
  2126 00:0D70: A9 1C 00     	lda	#$1c
  2127                        	xref	__~mov
  2128 00:0D73: 20 xx xx     	jsr	__~mov
  2129 00:0D76: F4 1C 00     	pea	#<$1c
  2130 00:0D79: 18           	clc
  2131 00:0D7A: 7B           	tdc
  2132 00:0D7B: 69 07 00     	adc	#<L50+tpOPR27_REM_31
  2133 00:0D7E: 48           	pha
  2134 00:0D7F: 20 xx xx     	jsr	__vmex
  2135 00:0D82: 85 05        	sta	<L50+testresult_1
  2136 00:0D84: D4 4F        	pei	<L49+testname_0
  2137 00:0D86: D4 05        	pei	<L50+testresult_1
  2138 00:0D88: F4 xx xx     	pea	#<L48+261
  2139 00:0D8B: 82 79 FB     	brl	L20183
  2140                        L10071:
  2141             00000002   tpOPR28_REMU_32	set	2
  2142 00:0D8E: F4 xx xx     	pea	#<L112
  2143 00:0D91: 18           	clc
  2144 00:0D92: 7B           	tdc
  2145 00:0D93: 69 07 00     	adc	#<L50+tpOPR28_REMU_32
  2146 00:0D96: 48           	pha
  2147 00:0D97: A9 1C 00     	lda	#$1c
  2148                        	xref	__~mov
  2149 00:0D9A: 20 xx xx     	jsr	__~mov
  2150 00:0D9D: F4 1C 00     	pea	#<$1c
  2151 00:0DA0: 18           	clc
  2152 00:0DA1: 7B           	tdc
  2153 00:0DA2: 69 07 00     	adc	#<L50+tpOPR28_REMU_32
  2154 00:0DA5: 48           	pha
  2155 00:0DA6: 20 xx xx     	jsr	__vmex
  2156 00:0DA9: 85 05        	sta	<L50+testresult_1
  2157 00:0DAB: D4 4F        	pei	<L49+testname_0
  2158 00:0DAD: D4 05        	pei	<L50+testresult_1
  2159 00:0DAF: F4 xx xx     	pea	#<L48+270
  2160 00:0DB2: 82 52 FB     	brl	L20183
  2161                        L10073:
  2162             00000002   tpOPIC1_CLTZ_33	set	2
  2163 00:0DB5: F4 xx xx     	pea	#<L114
  2164 00:0DB8: 18           	clc
  2165 00:0DB9: 7B           	tdc
  2166 00:0DBA: 69 07 00     	adc	#<L50+tpOPIC1_CLTZ_33
  2167 00:0DBD: 48           	pha
  2168 00:0DBE: A9 14 00     	lda	#$14
  2169                        	xref	__~mov
  2170 00:0DC1: 20 xx xx     	jsr	__~mov
  2171 00:0DC4: F4 14 00     	pea	#<$14
  2172 00:0DC7: 18           	clc
  2173 00:0DC8: 7B           	tdc
  2174 00:0DC9: 69 07 00     	adc	#<L50+tpOPIC1_CLTZ_33
  2175 00:0DCC: 48           	pha
  2176 00:0DCD: 20 xx xx     	jsr	__vmex
  2177 00:0DD0: 85 05        	sta	<L50+testresult_1
  2178 00:0DD2: D4 4F        	pei	<L49+testname_0
  2179 00:0DD4: D4 05        	pei	<L50+testresult_1
  2180 00:0DD6: F4 xx xx     	pea	#<L48+279
  Tue Jun 17 2025  1:16                                                                                                    Page 41


  2181 00:0DD9: 82 2B FB     	brl	L20183
  2182                        L10075:
  2183             00000002   tpOPIC3_CNEZ_34	set	2
  2184 00:0DDC: F4 xx xx     	pea	#<L116
  2185 00:0DDF: 18           	clc
  2186 00:0DE0: 7B           	tdc
  2187 00:0DE1: 69 07 00     	adc	#<L50+tpOPIC3_CNEZ_34
  2188 00:0DE4: 48           	pha
  2189 00:0DE5: A9 18 00     	lda	#$18
  2190                        	xref	__~mov
  2191 00:0DE8: 20 xx xx     	jsr	__~mov
  2192 00:0DEB: F4 18 00     	pea	#<$18
  2193 00:0DEE: 18           	clc
  2194 00:0DEF: 7B           	tdc
  2195 00:0DF0: 69 07 00     	adc	#<L50+tpOPIC3_CNEZ_34
  2196 00:0DF3: 48           	pha
  2197 00:0DF4: 20 xx xx     	jsr	__vmex
  2198 00:0DF7: 85 05        	sta	<L50+testresult_1
  2199 00:0DF9: D4 4F        	pei	<L49+testname_0
  2200 00:0DFB: D4 05        	pei	<L50+testresult_1
  2201 00:0DFD: F4 xx xx     	pea	#<L48+288
  2202 00:0E00: 82 04 FB     	brl	L20183
  2203                        L10077:
  2204             00000002   tpOPIC4_CEQZ_35	set	2
  2205 00:0E03: F4 xx xx     	pea	#<L118
  2206 00:0E06: 18           	clc
  2207 00:0E07: 7B           	tdc
  2208 00:0E08: 69 07 00     	adc	#<L50+tpOPIC4_CEQZ_35
  2209 00:0E0B: 48           	pha
  2210 00:0E0C: A9 14 00     	lda	#$14
  2211                        	xref	__~mov
  2212 00:0E0F: 20 xx xx     	jsr	__~mov
  2213 00:0E12: F4 14 00     	pea	#<$14
  2214 00:0E15: 18           	clc
  2215 00:0E16: 7B           	tdc
  2216 00:0E17: 69 07 00     	adc	#<L50+tpOPIC4_CEQZ_35
  2217 00:0E1A: 48           	pha
  2218 00:0E1B: 20 xx xx     	jsr	__vmex
  2219 00:0E1E: 85 05        	sta	<L50+testresult_1
  2220 00:0E20: D4 4F        	pei	<L49+testname_0
  2221 00:0E22: D4 05        	pei	<L50+testresult_1
  2222 00:0E24: F4 xx xx     	pea	#<L48+297
  2223 00:0E27: 82 DD FA     	brl	L20183
  2224                        L10079:
  2225             00000002   tpOPIC6_CGTZ_36	set	2
  2226 00:0E2A: F4 xx xx     	pea	#<L120
  2227 00:0E2D: 18           	clc
  2228 00:0E2E: 7B           	tdc
  2229 00:0E2F: 69 07 00     	adc	#<L50+tpOPIC6_CGTZ_36
  2230 00:0E32: 48           	pha
  2231 00:0E33: A9 14 00     	lda	#$14
  2232                        	xref	__~mov
  2233 00:0E36: 20 xx xx     	jsr	__~mov
  2234 00:0E39: F4 14 00     	pea	#<$14
  2235 00:0E3C: 18           	clc
  2236 00:0E3D: 7B           	tdc
  2237 00:0E3E: 69 07 00     	adc	#<L50+tpOPIC6_CGTZ_36
  2238 00:0E41: 48           	pha
  Tue Jun 17 2025  1:16                                                                                                    Page 42


  2239 00:0E42: 20 xx xx     	jsr	__vmex
  2240 00:0E45: 85 05        	sta	<L50+testresult_1
  2241 00:0E47: D4 4F        	pei	<L49+testname_0
  2242 00:0E49: D4 05        	pei	<L50+testresult_1
  2243 00:0E4B: F4 xx xx     	pea	#<L48+306
  2244 00:0E4E: 82 B6 FA     	brl	L20183
  2245                        L10081:
  2246             00000002   tpOPIDD_MOV_37	set	2
  2247 00:0E51: F4 xx xx     	pea	#<L122
  2248 00:0E54: 18           	clc
  2249 00:0E55: 7B           	tdc
  2250 00:0E56: 69 07 00     	adc	#<L50+tpOPIDD_MOV_37
  2251 00:0E59: 48           	pha
  2252 00:0E5A: A9 0C 00     	lda	#$c
  2253                        	xref	__~mov
  2254 00:0E5D: 20 xx xx     	jsr	__~mov
  2255 00:0E60: F4 0C 00     	pea	#<$c
  2256 00:0E63: 18           	clc
  2257 00:0E64: 7B           	tdc
  2258 00:0E65: 69 07 00     	adc	#<L50+tpOPIDD_MOV_37
  2259 00:0E68: 48           	pha
  2260 00:0E69: 20 xx xx     	jsr	__vmex
  2261 00:0E6C: 85 05        	sta	<L50+testresult_1
  2262 00:0E6E: D4 4F        	pei	<L49+testname_0
  2263 00:0E70: D4 05        	pei	<L50+testresult_1
  2264 00:0E72: F4 xx xx     	pea	#<L48+315
  2265 00:0E75: 82 8F FA     	brl	L20183
  2266                        L10083:
  2267             00000002   tpOPID0_INI_38	set	2
  2268 00:0E78: F4 xx xx     	pea	#<L124
  2269 00:0E7B: 18           	clc
  2270 00:0E7C: 7B           	tdc
  2271 00:0E7D: 69 07 00     	adc	#<L50+tpOPID0_INI_38
  2272 00:0E80: 48           	pha
  2273 00:0E81: A9 14 00     	lda	#$14
  2274                        	xref	__~mov
  2275 00:0E84: 20 xx xx     	jsr	__~mov
  2276 00:0E87: F4 14 00     	pea	#<$14
  2277 00:0E8A: 18           	clc
  2278 00:0E8B: 7B           	tdc
  2279 00:0E8C: 69 07 00     	adc	#<L50+tpOPID0_INI_38
  2280 00:0E8F: 48           	pha
  2281 00:0E90: 20 xx xx     	jsr	__vmex
  2282 00:0E93: 85 05        	sta	<L50+testresult_1
  2283 00:0E95: D4 4F        	pei	<L49+testname_0
  2284 00:0E97: D4 05        	pei	<L50+testresult_1
  2285 00:0E99: F4 xx xx     	pea	#<L48+324
  2286 00:0E9C: 82 68 FA     	brl	L20183
  2287                        L10085:
  2288             00000002   tpOPIDE_NEG_39	set	2
  2289 00:0E9F: F4 xx xx     	pea	#<L126
  2290 00:0EA2: 18           	clc
  2291 00:0EA3: 7B           	tdc
  2292 00:0EA4: 69 07 00     	adc	#<L50+tpOPIDE_NEG_39
  2293 00:0EA7: 48           	pha
  2294 00:0EA8: A9 10 00     	lda	#$10
  2295                        	xref	__~mov
  2296 00:0EAB: 20 xx xx     	jsr	__~mov
  Tue Jun 17 2025  1:16                                                                                                    Page 43


  2297 00:0EAE: F4 10 00     	pea	#<$10
  2298 00:0EB1: 18           	clc
  2299 00:0EB2: 7B           	tdc
  2300 00:0EB3: 69 07 00     	adc	#<L50+tpOPIDE_NEG_39
  2301 00:0EB6: 48           	pha
  2302 00:0EB7: 20 xx xx     	jsr	__vmex
  2303 00:0EBA: 85 05        	sta	<L50+testresult_1
  2304 00:0EBC: D4 4F        	pei	<L49+testname_0
  2305 00:0EBE: D4 05        	pei	<L50+testresult_1
  2306 00:0EC0: F4 xx xx     	pea	#<L48+333
  2307 00:0EC3: 82 41 FA     	brl	L20183
  2308                        L10087:
  2309             00000002   tpOPIDF_NOT_40	set	2
  2310 00:0EC6: F4 xx xx     	pea	#<L128
  2311 00:0EC9: 18           	clc
  2312 00:0ECA: 7B           	tdc
  2313 00:0ECB: 69 07 00     	adc	#<L50+tpOPIDF_NOT_40
  2314 00:0ECE: 48           	pha
  2315 00:0ECF: A9 10 00     	lda	#$10
  2316                        	xref	__~mov
  2317 00:0ED2: 20 xx xx     	jsr	__~mov
  2318 00:0ED5: F4 10 00     	pea	#<$10
  2319 00:0ED8: 18           	clc
  2320 00:0ED9: 7B           	tdc
  2321 00:0EDA: 69 07 00     	adc	#<L50+tpOPIDF_NOT_40
  2322 00:0EDD: 48           	pha
  2323 00:0EDE: 20 xx xx     	jsr	__vmex
  2324 00:0EE1: 85 05        	sta	<L50+testresult_1
  2325 00:0EE3: D4 4F        	pei	<L49+testname_0
  2326 00:0EE5: D4 05        	pei	<L50+testresult_1
  2327 00:0EE7: F4 xx xx     	pea	#<L48+342
  2328 00:0EEA: 82 1A FA     	brl	L20183
  2329                        L10089:
  2330             00000002   tpOPS51_WB_41	set	2
  2331 00:0EED: F4 xx xx     	pea	#<L130
  2332 00:0EF0: 18           	clc
  2333 00:0EF1: 7B           	tdc
  2334 00:0EF2: 69 07 00     	adc	#<L50+tpOPS51_WB_41
  2335 00:0EF5: 48           	pha
  2336 00:0EF6: A9 2C 00     	lda	#$2c
  2337                        	xref	__~mov
  2338 00:0EF9: 20 xx xx     	jsr	__~mov
  2339 00:0EFC: F4 2C 00     	pea	#<$2c
  2340 00:0EFF: 18           	clc
  2341 00:0F00: 7B           	tdc
  2342 00:0F01: 69 07 00     	adc	#<L50+tpOPS51_WB_41
  2343 00:0F04: 48           	pha
  2344 00:0F05: 20 xx xx     	jsr	__vmex
  2345 00:0F08: 85 05        	sta	<L50+testresult_1
  2346 00:0F0A: D4 4F        	pei	<L49+testname_0
  2347 00:0F0C: D4 05        	pei	<L50+testresult_1
  2348 00:0F0E: F4 xx xx     	pea	#<L48+351
  2349 00:0F11: 82 F3 F9     	brl	L20183
  2350                        L10091:
  2351             00000002   tpOPS52_WH_42	set	2
  2352 00:0F14: F4 xx xx     	pea	#<L132
  2353 00:0F17: 18           	clc
  2354 00:0F18: 7B           	tdc
  Tue Jun 17 2025  1:16                                                                                                    Page 44


  2355 00:0F19: 69 07 00     	adc	#<L50+tpOPS52_WH_42
  2356 00:0F1C: 48           	pha
  2357 00:0F1D: A9 2C 00     	lda	#$2c
  2358                        	xref	__~mov
  2359 00:0F20: 20 xx xx     	jsr	__~mov
  2360 00:0F23: F4 2C 00     	pea	#<$2c
  2361 00:0F26: 18           	clc
  2362 00:0F27: 7B           	tdc
  2363 00:0F28: 69 07 00     	adc	#<L50+tpOPS52_WH_42
  2364 00:0F2B: 48           	pha
  2365 00:0F2C: 20 xx xx     	jsr	__vmex
  2366 00:0F2F: 85 05        	sta	<L50+testresult_1
  2367 00:0F31: D4 4F        	pei	<L49+testname_0
  2368 00:0F33: D4 05        	pei	<L50+testresult_1
  2369 00:0F35: F4 xx xx     	pea	#<L48+360
  2370 00:0F38: 82 CC F9     	brl	L20183
  2371                        L10093:
  2372             00000002   tpOPS54_WW_43	set	2
  2373 00:0F3B: F4 xx xx     	pea	#<L134
  2374 00:0F3E: 18           	clc
  2375 00:0F3F: 7B           	tdc
  2376 00:0F40: 69 07 00     	adc	#<L50+tpOPS54_WW_43
  2377 00:0F43: 48           	pha
  2378 00:0F44: A9 34 00     	lda	#$34
  2379                        	xref	__~mov
  2380 00:0F47: 20 xx xx     	jsr	__~mov
  2381 00:0F4A: F4 34 00     	pea	#<$34
  2382 00:0F4D: 18           	clc
  2383 00:0F4E: 7B           	tdc
  2384 00:0F4F: 69 07 00     	adc	#<L50+tpOPS54_WW_43
  2385 00:0F52: 48           	pha
  2386 00:0F53: 20 xx xx     	jsr	__vmex
  2387 00:0F56: 85 05        	sta	<L50+testresult_1
  2388 00:0F58: D4 4F        	pei	<L49+testname_0
  2389 00:0F5A: D4 05        	pei	<L50+testresult_1
  2390 00:0F5C: F4 xx xx     	pea	#<L48+369
  2391 00:0F5F: 82 A5 F9     	brl	L20183
  2392                        L10095:
  2393             00000002   tpOPIAB_LBU_44	set	2
  2394 00:0F62: F4 xx xx     	pea	#<L136
  2395 00:0F65: 18           	clc
  2396 00:0F66: 7B           	tdc
  2397 00:0F67: 69 07 00     	adc	#<L50+tpOPIAB_LBU_44
  2398 00:0F6A: 48           	pha
  2399 00:0F6B: A9 2C 00     	lda	#$2c
  2400                        	xref	__~mov
  2401 00:0F6E: 20 xx xx     	jsr	__~mov
  2402 00:0F71: F4 2C 00     	pea	#<$2c
  2403 00:0F74: 18           	clc
  2404 00:0F75: 7B           	tdc
  2405 00:0F76: 69 07 00     	adc	#<L50+tpOPIAB_LBU_44
  2406 00:0F79: 48           	pha
  2407 00:0F7A: 20 xx xx     	jsr	__vmex
  2408 00:0F7D: 85 05        	sta	<L50+testresult_1
  2409 00:0F7F: D4 4F        	pei	<L49+testname_0
  2410 00:0F81: D4 05        	pei	<L50+testresult_1
  2411 00:0F83: F4 xx xx     	pea	#<L48+378
  2412 00:0F86: 82 7E F9     	brl	L20183
  Tue Jun 17 2025  1:16                                                                                                    Page 45


  2413                        L10097:
  2414             00000002   tpOPIAD_LHU_45	set	2
  2415 00:0F89: F4 xx xx     	pea	#<L138
  2416 00:0F8C: 18           	clc
  2417 00:0F8D: 7B           	tdc
  2418 00:0F8E: 69 07 00     	adc	#<L50+tpOPIAD_LHU_45
  2419 00:0F91: 48           	pha
  2420 00:0F92: A9 2C 00     	lda	#$2c
  2421                        	xref	__~mov
  2422 00:0F95: 20 xx xx     	jsr	__~mov
  2423 00:0F98: F4 2C 00     	pea	#<$2c
  2424 00:0F9B: 18           	clc
  2425 00:0F9C: 7B           	tdc
  2426 00:0F9D: 69 07 00     	adc	#<L50+tpOPIAD_LHU_45
  2427 00:0FA0: 48           	pha
  2428 00:0FA1: 20 xx xx     	jsr	__vmex
  2429 00:0FA4: 85 05        	sta	<L50+testresult_1
  2430 00:0FA6: D4 4F        	pei	<L49+testname_0
  2431 00:0FA8: D4 05        	pei	<L50+testresult_1
  2432 00:0FAA: F4 xx xx     	pea	#<L48+387
  2433 00:0FAD: 82 57 F9     	brl	L20183
  2434                        L10099:
  2435             00000002   tpOPSB1_BLT_46	set	2
  2436 00:0FB0: F4 xx xx     	pea	#<L140
  2437 00:0FB3: 18           	clc
  2438 00:0FB4: 7B           	tdc
  2439 00:0FB5: 69 07 00     	adc	#<L50+tpOPSB1_BLT_46
  2440 00:0FB8: 48           	pha
  2441 00:0FB9: A9 3C 00     	lda	#$3c
  2442                        	xref	__~mov
  2443 00:0FBC: 20 xx xx     	jsr	__~mov
  2444 00:0FBF: F4 3C 00     	pea	#<$3c
  2445 00:0FC2: 18           	clc
  2446 00:0FC3: 7B           	tdc
  2447 00:0FC4: 69 07 00     	adc	#<L50+tpOPSB1_BLT_46
  2448 00:0FC7: 48           	pha
  2449 00:0FC8: 20 xx xx     	jsr	__vmex
  2450 00:0FCB: 85 05        	sta	<L50+testresult_1
  2451 00:0FCD: D4 4F        	pei	<L49+testname_0
  2452 00:0FCF: D4 05        	pei	<L50+testresult_1
  2453 00:0FD1: F4 xx xx     	pea	#<L48+396
  2454 00:0FD4: 82 30 F9     	brl	L20183
  2455                        L10101:
  2456             00000002   tpOPSB2_BLE_47	set	2
  2457 00:0FD7: F4 xx xx     	pea	#<L142
  2458 00:0FDA: 18           	clc
  2459 00:0FDB: 7B           	tdc
  2460 00:0FDC: 69 07 00     	adc	#<L50+tpOPSB2_BLE_47
  2461 00:0FDF: 48           	pha
  2462 00:0FE0: A9 3C 00     	lda	#$3c
  2463                        	xref	__~mov
  2464 00:0FE3: 20 xx xx     	jsr	__~mov
  2465 00:0FE6: F4 3C 00     	pea	#<$3c
  2466 00:0FE9: 18           	clc
  2467 00:0FEA: 7B           	tdc
  2468 00:0FEB: 69 07 00     	adc	#<L50+tpOPSB2_BLE_47
  2469 00:0FEE: 48           	pha
  2470 00:0FEF: 20 xx xx     	jsr	__vmex
  Tue Jun 17 2025  1:16                                                                                                    Page 46


  2471 00:0FF2: 85 05        	sta	<L50+testresult_1
  2472 00:0FF4: D4 4F        	pei	<L49+testname_0
  2473 00:0FF6: D4 05        	pei	<L50+testresult_1
  2474 00:0FF8: F4 xx xx     	pea	#<L48+405
  2475 00:0FFB: 82 09 F9     	brl	L20183
  2476                        L10103:
  2477             00000002   tpOPSB3_BNE_48	set	2
  2478 00:0FFE: F4 xx xx     	pea	#<L144
  2479 00:1001: 18           	clc
  2480 00:1002: 7B           	tdc
  2481 00:1003: 69 07 00     	adc	#<L50+tpOPSB3_BNE_48
  2482 00:1006: 48           	pha
  2483 00:1007: A9 2C 00     	lda	#$2c
  2484                        	xref	__~mov
  2485 00:100A: 20 xx xx     	jsr	__~mov
  2486 00:100D: F4 2C 00     	pea	#<$2c
  2487 00:1010: 18           	clc
  2488 00:1011: 7B           	tdc
  2489 00:1012: 69 07 00     	adc	#<L50+tpOPSB3_BNE_48
  2490 00:1015: 48           	pha
  2491 00:1016: 20 xx xx     	jsr	__vmex
  2492 00:1019: 85 05        	sta	<L50+testresult_1
  2493 00:101B: D4 4F        	pei	<L49+testname_0
  2494 00:101D: D4 05        	pei	<L50+testresult_1
  2495 00:101F: F4 xx xx     	pea	#<L48+414
  2496 00:1022: 82 E2 F8     	brl	L20183
  2497                        L10105:
  2498             00000002   tpOPSB4_BEQ_49	set	2
  2499 00:1025: F4 xx xx     	pea	#<L146
  2500 00:1028: 18           	clc
  2501 00:1029: 7B           	tdc
  2502 00:102A: 69 07 00     	adc	#<L50+tpOPSB4_BEQ_49
  2503 00:102D: 48           	pha
  2504 00:102E: A9 28 00     	lda	#$28
  2505                        	xref	__~mov
  2506 00:1031: 20 xx xx     	jsr	__~mov
  2507 00:1034: F4 28 00     	pea	#<$28
  2508 00:1037: 18           	clc
  2509 00:1038: 7B           	tdc
  2510 00:1039: 69 07 00     	adc	#<L50+tpOPSB4_BEQ_49
  2511 00:103C: 48           	pha
  2512 00:103D: 20 xx xx     	jsr	__vmex
  2513 00:1040: 85 05        	sta	<L50+testresult_1
  2514 00:1042: D4 4F        	pei	<L49+testname_0
  2515 00:1044: D4 05        	pei	<L50+testresult_1
  2516 00:1046: F4 xx xx     	pea	#<L48+423
  2517 00:1049: 82 BB F8     	brl	L20183
  2518                        L10107:
  2519             00000002   tpOPSB5_BGE_50	set	2
  2520 00:104C: F4 xx xx     	pea	#<L148
  2521 00:104F: 18           	clc
  2522 00:1050: 7B           	tdc
  2523 00:1051: 69 07 00     	adc	#<L50+tpOPSB5_BGE_50
  2524 00:1054: 48           	pha
  2525 00:1055: A9 3C 00     	lda	#$3c
  2526                        	xref	__~mov
  2527 00:1058: 20 xx xx     	jsr	__~mov
  2528 00:105B: F4 3C 00     	pea	#<$3c
  Tue Jun 17 2025  1:16                                                                                                    Page 47


  2529 00:105E: 18           	clc
  2530 00:105F: 7B           	tdc
  2531 00:1060: 69 07 00     	adc	#<L50+tpOPSB5_BGE_50
  2532 00:1063: 48           	pha
  2533 00:1064: 20 xx xx     	jsr	__vmex
  2534 00:1067: 85 05        	sta	<L50+testresult_1
  2535 00:1069: D4 4F        	pei	<L49+testname_0
  2536 00:106B: D4 05        	pei	<L50+testresult_1
  2537 00:106D: F4 xx xx     	pea	#<L48+432
  2538 00:1070: 82 94 F8     	brl	L20183
  2539                        L10109:
  2540             00000002   tpOPSB6_BGT_51	set	2
  2541 00:1073: F4 xx xx     	pea	#<L150
  2542 00:1076: 18           	clc
  2543 00:1077: 7B           	tdc
  2544 00:1078: 69 07 00     	adc	#<L50+tpOPSB6_BGT_51
  2545 00:107B: 48           	pha
  2546 00:107C: A9 3C 00     	lda	#$3c
  2547                        	xref	__~mov
  2548 00:107F: 20 xx xx     	jsr	__~mov
  2549 00:1082: F4 3C 00     	pea	#<$3c
  2550 00:1085: 18           	clc
  2551 00:1086: 7B           	tdc
  2552 00:1087: 69 07 00     	adc	#<L50+tpOPSB6_BGT_51
  2553 00:108A: 48           	pha
  2554 00:108B: 20 xx xx     	jsr	__vmex
  2555 00:108E: 85 05        	sta	<L50+testresult_1
  2556 00:1090: D4 4F        	pei	<L49+testname_0
  2557 00:1092: D4 05        	pei	<L50+testresult_1
  2558 00:1094: F4 xx xx     	pea	#<L48+441
  2559 00:1097: 82 6D F8     	brl	L20183
  2560                        L10111:
  2561             00000002   tpOPSBA_BLTU_52	set	2
  2562 00:109A: F4 xx xx     	pea	#<L152
  2563 00:109D: 18           	clc
  2564 00:109E: 7B           	tdc
  2565 00:109F: 69 07 00     	adc	#<L50+tpOPSBA_BLTU_52
  2566 00:10A2: 48           	pha
  2567 00:10A3: A9 3C 00     	lda	#$3c
  2568                        	xref	__~mov
  2569 00:10A6: 20 xx xx     	jsr	__~mov
  2570 00:10A9: F4 3C 00     	pea	#<$3c
  2571 00:10AC: 18           	clc
  2572 00:10AD: 7B           	tdc
  2573 00:10AE: 69 07 00     	adc	#<L50+tpOPSBA_BLTU_52
  2574 00:10B1: 48           	pha
  2575 00:10B2: 20 xx xx     	jsr	__vmex
  2576 00:10B5: 85 05        	sta	<L50+testresult_1
  2577 00:10B7: D4 4F        	pei	<L49+testname_0
  2578 00:10B9: D4 05        	pei	<L50+testresult_1
  2579 00:10BB: F4 xx xx     	pea	#<L48+450
  2580 00:10BE: 82 46 F8     	brl	L20183
  2581                        L10113:
  2582             00000002   tpOPSBB_BLEU_53	set	2
  2583 00:10C1: F4 xx xx     	pea	#<L154
  2584 00:10C4: 18           	clc
  2585 00:10C5: 7B           	tdc
  2586 00:10C6: 69 07 00     	adc	#<L50+tpOPSBB_BLEU_53
  Tue Jun 17 2025  1:16                                                                                                    Page 48


  2587 00:10C9: 48           	pha
  2588 00:10CA: A9 3C 00     	lda	#$3c
  2589                        	xref	__~mov
  2590 00:10CD: 20 xx xx     	jsr	__~mov
  2591 00:10D0: F4 3C 00     	pea	#<$3c
  2592 00:10D3: 18           	clc
  2593 00:10D4: 7B           	tdc
  2594 00:10D5: 69 07 00     	adc	#<L50+tpOPSBB_BLEU_53
  2595 00:10D8: 48           	pha
  2596 00:10D9: 20 xx xx     	jsr	__vmex
  2597 00:10DC: 85 05        	sta	<L50+testresult_1
  2598 00:10DE: D4 4F        	pei	<L49+testname_0
  2599 00:10E0: D4 05        	pei	<L50+testresult_1
  2600 00:10E2: F4 xx xx     	pea	#<L48+459
  2601 00:10E5: 82 1F F8     	brl	L20183
  2602                        L10115:
  2603             00000002   tpOPSBC_BGEU_54	set	2
  2604 00:10E8: F4 xx xx     	pea	#<L156
  2605 00:10EB: 18           	clc
  2606 00:10EC: 7B           	tdc
  2607 00:10ED: 69 07 00     	adc	#<L50+tpOPSBC_BGEU_54
  2608 00:10F0: 48           	pha
  2609 00:10F1: A9 3C 00     	lda	#$3c
  2610                        	xref	__~mov
  2611 00:10F4: 20 xx xx     	jsr	__~mov
  2612 00:10F7: F4 3C 00     	pea	#<$3c
  2613 00:10FA: 18           	clc
  2614 00:10FB: 7B           	tdc
  2615 00:10FC: 69 07 00     	adc	#<L50+tpOPSBC_BGEU_54
  2616 00:10FF: 48           	pha
  2617 00:1100: 20 xx xx     	jsr	__vmex
  2618 00:1103: 85 05        	sta	<L50+testresult_1
  2619 00:1105: D4 4F        	pei	<L49+testname_0
  2620 00:1107: D4 05        	pei	<L50+testresult_1
  2621 00:1109: F4 xx xx     	pea	#<L48+468
  2622 00:110C: 82 F8 F7     	brl	L20183
  2623                        L10117:
  2624             00000002   tpOPSBD_BGTU_55	set	2
  2625 00:110F: F4 xx xx     	pea	#<L158
  2626 00:1112: 18           	clc
  2627 00:1113: 7B           	tdc
  2628 00:1114: 69 07 00     	adc	#<L50+tpOPSBD_BGTU_55
  2629 00:1117: 48           	pha
  2630 00:1118: A9 3C 00     	lda	#$3c
  2631                        	xref	__~mov
  2632 00:111B: 20 xx xx     	jsr	__~mov
  2633 00:111E: F4 3C 00     	pea	#<$3c
  2634 00:1121: 18           	clc
  2635 00:1122: 7B           	tdc
  2636 00:1123: 69 07 00     	adc	#<L50+tpOPSBD_BGTU_55
  2637 00:1126: 48           	pha
  2638 00:1127: 20 xx xx     	jsr	__vmex
  2639 00:112A: 85 05        	sta	<L50+testresult_1
  2640 00:112C: D4 4F        	pei	<L49+testname_0
  2641 00:112E: D4 05        	pei	<L50+testresult_1
  2642 00:1130: F4 xx xx     	pea	#<L48+477
  2643 00:1133: 82 D1 F7     	brl	L20183
  2644                        L10119:
  Tue Jun 17 2025  1:16                                                                                                    Page 49


  2645             00000002   tpOPS81_BLTZ_56	set	2
  2646 00:1136: F4 xx xx     	pea	#<L160
  2647 00:1139: 18           	clc
  2648 00:113A: 7B           	tdc
  2649 00:113B: 69 07 00     	adc	#<L50+tpOPS81_BLTZ_56
  2650 00:113E: 48           	pha
  2651 00:113F: A9 30 00     	lda	#$30
  2652                        	xref	__~mov
  2653 00:1142: 20 xx xx     	jsr	__~mov
  2654 00:1145: F4 30 00     	pea	#<$30
  2655 00:1148: 18           	clc
  2656 00:1149: 7B           	tdc
  2657 00:114A: 69 07 00     	adc	#<L50+tpOPS81_BLTZ_56
  2658 00:114D: 48           	pha
  2659 00:114E: 20 xx xx     	jsr	__vmex
  2660 00:1151: 85 05        	sta	<L50+testresult_1
  2661 00:1153: D4 4F        	pei	<L49+testname_0
  2662 00:1155: D4 05        	pei	<L50+testresult_1
  2663 00:1157: F4 xx xx     	pea	#<L48+486
  2664 00:115A: 82 AA F7     	brl	L20183
  2665                        L10121:
  2666             00000002   tpOPS82_BLEZ_57	set	2
  2667 00:115D: F4 xx xx     	pea	#<L162
  2668 00:1160: 18           	clc
  2669 00:1161: 7B           	tdc
  2670 00:1162: 69 07 00     	adc	#<L50+tpOPS82_BLEZ_57
  2671 00:1165: 48           	pha
  2672 00:1166: A9 30 00     	lda	#$30
  2673                        	xref	__~mov
  2674 00:1169: 20 xx xx     	jsr	__~mov
  2675 00:116C: F4 30 00     	pea	#<$30
  2676 00:116F: 18           	clc
  2677 00:1170: 7B           	tdc
  2678 00:1171: 69 07 00     	adc	#<L50+tpOPS82_BLEZ_57
  2679 00:1174: 48           	pha
  2680 00:1175: 20 xx xx     	jsr	__vmex
  2681 00:1178: 85 05        	sta	<L50+testresult_1
  2682 00:117A: D4 4F        	pei	<L49+testname_0
  2683 00:117C: D4 05        	pei	<L50+testresult_1
  2684 00:117E: F4 xx xx     	pea	#<L48+495
  2685 00:1181: 82 83 F7     	brl	L20183
  2686                        L10123:
  2687             00000002   tpOPS83_BNEZ_58	set	2
  2688 00:1184: F4 xx xx     	pea	#<L164
  2689 00:1187: 18           	clc
  2690 00:1188: 7B           	tdc
  2691 00:1189: 69 07 00     	adc	#<L50+tpOPS83_BNEZ_58
  2692 00:118C: 48           	pha
  2693 00:118D: A9 24 00     	lda	#$24
  2694                        	xref	__~mov
  2695 00:1190: 20 xx xx     	jsr	__~mov
  2696 00:1193: F4 24 00     	pea	#<$24
  2697 00:1196: 18           	clc
  2698 00:1197: 7B           	tdc
  2699 00:1198: 69 07 00     	adc	#<L50+tpOPS83_BNEZ_58
  2700 00:119B: 48           	pha
  2701 00:119C: 20 xx xx     	jsr	__vmex
  2702 00:119F: 85 05        	sta	<L50+testresult_1
  Tue Jun 17 2025  1:16                                                                                                    Page 50


  2703 00:11A1: D4 4F        	pei	<L49+testname_0
  2704 00:11A3: D4 05        	pei	<L50+testresult_1
  2705 00:11A5: F4 xx xx     	pea	#<L48+504
  2706 00:11A8: 82 5C F7     	brl	L20183
  2707                        L10125:
  2708             00000002   tpOPS84_BEQZ_59	set	2
  2709 00:11AB: F4 xx xx     	pea	#<L166
  2710 00:11AE: 18           	clc
  2711 00:11AF: 7B           	tdc
  2712 00:11B0: 69 07 00     	adc	#<L50+tpOPS84_BEQZ_59
  2713 00:11B3: 48           	pha
  2714 00:11B4: A9 20 00     	lda	#$20
  2715                        	xref	__~mov
  2716 00:11B7: 20 xx xx     	jsr	__~mov
  2717 00:11BA: F4 20 00     	pea	#<$20
  2718 00:11BD: 18           	clc
  2719 00:11BE: 7B           	tdc
  2720 00:11BF: 69 07 00     	adc	#<L50+tpOPS84_BEQZ_59
  2721 00:11C2: 48           	pha
  2722 00:11C3: 20 xx xx     	jsr	__vmex
  2723 00:11C6: 85 05        	sta	<L50+testresult_1
  2724 00:11C8: D4 4F        	pei	<L49+testname_0
  2725 00:11CA: D4 05        	pei	<L50+testresult_1
  2726 00:11CC: F4 xx xx     	pea	#<L48+513
  2727 00:11CF: 82 35 F7     	brl	L20183
  2728                        L10127:
  2729             00000002   tpOPS85_BGEZ_60	set	2
  2730 00:11D2: F4 xx xx     	pea	#<L168
  2731 00:11D5: 18           	clc
  2732 00:11D6: 7B           	tdc
  2733 00:11D7: 69 07 00     	adc	#<L50+tpOPS85_BGEZ_60
  2734 00:11DA: 48           	pha
  2735 00:11DB: A9 30 00     	lda	#$30
  2736                        	xref	__~mov
  2737 00:11DE: 20 xx xx     	jsr	__~mov
  2738 00:11E1: F4 30 00     	pea	#<$30
  2739 00:11E4: 18           	clc
  2740 00:11E5: 7B           	tdc
  2741 00:11E6: 69 07 00     	adc	#<L50+tpOPS85_BGEZ_60
  2742 00:11E9: 48           	pha
  2743 00:11EA: 20 xx xx     	jsr	__vmex
  2744 00:11ED: 85 05        	sta	<L50+testresult_1
  2745 00:11EF: D4 4F        	pei	<L49+testname_0
  2746 00:11F1: D4 05        	pei	<L50+testresult_1
  2747 00:11F3: F4 xx xx     	pea	#<L48+522
  2748 00:11F6: 82 0E F7     	brl	L20183
  2749                        L10129:
  2750             00000002   tpOPS86_BGTZ_61	set	2
  2751 00:11F9: F4 xx xx     	pea	#<L170
  2752 00:11FC: 18           	clc
  2753 00:11FD: 7B           	tdc
  2754 00:11FE: 69 07 00     	adc	#<L50+tpOPS86_BGTZ_61
  2755 00:1201: 48           	pha
  2756 00:1202: A9 30 00     	lda	#$30
  2757                        	xref	__~mov
  2758 00:1205: 20 xx xx     	jsr	__~mov
  2759 00:1208: F4 30 00     	pea	#<$30
  2760 00:120B: 18           	clc
  Tue Jun 17 2025  1:16                                                                                                    Page 51


  2761 00:120C: 7B           	tdc
  2762 00:120D: 69 07 00     	adc	#<L50+tpOPS86_BGTZ_61
  2763 00:1210: 48           	pha
  2764 00:1211: 20 xx xx     	jsr	__vmex
  2765 00:1214: 85 05        	sta	<L50+testresult_1
  2766 00:1216: D4 4F        	pei	<L49+testname_0
  2767 00:1218: D4 05        	pei	<L50+testresult_1
  2768 00:121A: F4 xx xx     	pea	#<L48+531
  2769 00:121D: 82 E7 F6     	brl	L20183
  2770                        L10131:
  2771             00000002   tpOPI40_FENCE_62	set	2
  2772 00:1220: F4 xx xx     	pea	#<L172
  2773 00:1223: 18           	clc
  2774 00:1224: 7B           	tdc
  2775 00:1225: 69 07 00     	adc	#<L50+tpOPI40_FENCE_62
  2776 00:1228: 48           	pha
  2777 00:1229: A9 04 00     	lda	#$4
  2778                        	xref	__~mov
  2779 00:122C: 20 xx xx     	jsr	__~mov
  2780 00:122F: F4 04 00     	pea	#<$4
  2781 00:1232: 18           	clc
  2782 00:1233: 7B           	tdc
  2783 00:1234: 69 07 00     	adc	#<L50+tpOPI40_FENCE_62
  2784 00:1237: 48           	pha
  2785 00:1238: 20 xx xx     	jsr	__vmex
  2786 00:123B: 85 05        	sta	<L50+testresult_1
  2787 00:123D: D4 4F        	pei	<L49+testname_0
  2788 00:123F: D4 05        	pei	<L50+testresult_1
  2789 00:1241: F4 xx xx     	pea	#<L48+540
  2790 00:1244: 82 C0 F6     	brl	L20183
  2791                        L10133:
  2792 00:1247: A9 01 00     	lda	#$1
  2793 00:124A: 85 05        	sta	<L50+testresult_1
  2794 00:124C: D4 4F        	pei	<L49+testname_0
  2795 00:124E: D4 05        	pei	<L50+testresult_1
  2796 00:1250: F4 xx xx     	pea	#<L48+549
  2797 00:1253: F4 08 00     	pea	#8
  2798 00:1256: 20 xx xx     	jsr	__printf
  2799 00:1259: A5 05        	lda	<L50+testresult_1
  2800 00:125B: F0 03        	beq	*+5
  2801 00:125D: 82 B4 F6     	brl	L20001
  2802                        L10012:
  2803 00:1260: A9 00 00     	lda	#$0
  2804 00:1263: 82 B1 F6     	brl	L53
  2805             0000004A   L49	equ	74
  2806             00000005   L50	equ	5
  2807                        	ends
  2808                        	efunc
  2809                        	data
  2810                        L51:
  2811 00:036D: 00 00 00 00  	db	$0,$0,$0,$0
  2812 00:0371:              	ends
  2813                        	data
  2814                        L54:
  2815 00:0371: 11 AA 00 08  	db	$11,$AA,$0,$8,$11,$AA,$0,$2,$11,$AA
       00:0375: 11 AA 00 02 
       00:0379: 11 AA 
  2816 00:037B: FF F4 11 AA  	db	$FF,$F4,$11,$AA,$0,$2,$11,$AA,$F0,$0
  Tue Jun 17 2025  1:16                                                                                                    Page 52


       00:037F: 00 02 11 AA 
       00:0383: F0 00 
  2817 00:0385: 11 AA 9C 40  	db	$11,$AA,$9C,$40,$11,$AA,$73,$C0,$11,$AA
       00:0389: 11 AA 73 C0 
       00:038D: 11 AA 
  2818 00:038F: 30 00 11 AA  	db	$30,$0,$11,$AA,$30,$0,$11,$AA,$90,$0
       00:0393: 30 00 11 AA 
       00:0397: 90 00 
  2819 00:0399: 11 AA 10 00  	db	$11,$AA,$10,$0
  2820 00:039D:              	ends
  2821                        	data
  2822                        L56:
  2823 00:039D: 11 A0 00 08  	db	$11,$A0,$0,$8,$11,$AA,$0,$2,$12,$AA
       00:03A1: 11 AA 00 02 
       00:03A5: 12 AA 
  2824 00:03A7: 00 0C 11 AA  	db	$0,$C,$11,$AA,$0,$2,$12,$AA,$FF,$E8
       00:03AB: 00 02 12 AA 
       00:03AF: FF E8 
  2825 00:03B1: 12 AA 00 30  	db	$12,$AA,$0,$30,$12,$AA,$FF,$E8,$11,$AA
       00:03B5: 12 AA FF E8 
       00:03B9: 11 AA 
  2826 00:03BB: 30 00 11 AA  	db	$30,$0,$11,$AA,$30,$0,$12,$AA,$70,$0
       00:03BF: 30 00 12 AA 
       00:03C3: 70 00 
  2827 00:03C5: 11 AA 10 00  	db	$11,$AA,$10,$0
  2828 00:03C9:              	ends
  2829                        	data
  2830                        L58:
  2831 00:03C9: 11 AA 56 78  	db	$11,$AA,$56,$78,$13,$AA,$F,$F,$13,$AA
       00:03CD: 13 AA 0F 0F 
       00:03D1: 13 AA 
  2832 00:03D3: 59 77        	db	$59,$77
  2833 00:03D5:              	ends
  2834                        	data
  2835                        L60:
  2836 00:03D5: 11 AA 56 78  	db	$11,$AA,$56,$78,$14,$AA,$F,$F,$11,$AA
       00:03D9: 14 AA 0F 0F 
       00:03DD: 11 AA 
  2837 00:03DF: F9 F8        	db	$F9,$F8
  2838 00:03E1:              	ends
  2839                        	data
  2840                        L62:
  2841 00:03E1: 11 AA 56 78  	db	$11,$AA,$56,$78,$15,$AA,$F,$F,$11,$AA
       00:03E5: 15 AA 0F 0F 
       00:03E9: 11 AA 
  2842 00:03EB: A0 81        	db	$A0,$81
  2843 00:03ED:              	ends
  2844                        	data
  2845                        L64:
  2846 00:03ED: 11 AA 56 78  	db	$11,$AA,$56,$78,$16,$AA,$0,$8,$17,$AA
       00:03F1: 16 AA 00 08 
       00:03F5: 17 AA 
  2847 00:03F7: 00 08 11 AA  	db	$0,$8,$11,$AA,$A9,$88
       00:03FB: A9 88 
  2848 00:03FD:              	ends
  2849                        	data
  2850                        L66:
  2851 00:03FD: 11 AA 88 88  	db	$11,$AA,$88,$88,$16,$AA,$0,$10,$18,$AA
  Tue Jun 17 2025  1:16                                                                                                    Page 53


       00:0401: 16 AA 00 10 
       00:0405: 18 AA 
  2852 00:0407: 00 10 11 AA  	db	$0,$10,$11,$AA,$77,$78
       00:040B: 77 78 
  2853 00:040D:              	ends
  2854                        	data
  2855                        L68:
  2856 00:040D: 11 AA 88 88  	db	$11,$AA,$88,$88,$1A,$AA,$99,$99,$12,$AA
       00:0411: 1A AA 99 99 
       00:0415: 12 AA 
  2857 00:0417: 00 01 11 AA  	db	$0,$1,$11,$AA,$0,$88,$1A,$AA,$0,$99
       00:041B: 00 88 1A AA 
       00:041F: 00 99 
  2858 00:0421: 11 AA FF FF  	db	$11,$AA,$FF,$FF,$11,$AA,$FF,$E7,$1A,$AA
       00:0425: 11 AA FF E7 
       00:0429: 1A AA 
  2859 00:042B: FF F0 11 AA  	db	$FF,$F0,$11,$AA,$FF,$FF
       00:042F: FF FF 
  2860 00:0431:              	ends
  2861                        	data
  2862                        L70:
  2863 00:0431: 11 A0 66 66  	db	$11,$A0,$66,$66,$1B,$A0,$99,$99,$11,$AA
       00:0435: 1B A0 99 99 
       00:0439: 11 AA 
  2864 00:043B: FF FF        	db	$FF,$FF
  2865 00:043D:              	ends
  2866                        	data
  2867                        L72:
  2868 00:043D: 1E A0 00 08  	db	$1E,$A0,$0,$8,$11,$AA,$0,$2,$11,$AA
       00:0441: 11 AA 00 02 
       00:0445: 11 AA 
  2869 00:0447: FF F4 11 AA  	db	$FF,$F4,$11,$AA,$0,$2,$1E,$A0,$F0,$0
       00:044B: 00 02 1E A0 
       00:044F: F0 00 
  2870 00:0451: 11 AA 9C 40  	db	$11,$AA,$9C,$40,$11,$AA,$73,$C0,$1E,$A0
       00:0455: 11 AA 73 C0 
       00:0459: 1E A0 
  2871 00:045B: 30 00 11 AA  	db	$30,$0,$11,$AA,$30,$0,$11,$AA,$90,$0
       00:045F: 30 00 11 AA 
       00:0463: 90 00 
  2872 00:0465: 11 AA 10 00  	db	$11,$AA,$10,$0
  2873 00:0469:              	ends
  2874                        	data
  2875                        L74:
  2876 00:0469: 71 A0 66 66  	db	$71,$A0,$66,$66,$17,$AA,$0,$10,$11,$AA
       00:046D: 17 AA 00 10 
       00:0471: 11 AA 
  2877 00:0473: 99 9A        	db	$99,$9A
  2878 00:0475:              	ends
  2879                        	data
  2880                        L76:
  2881 00:0475: 11 AA 00 00  	db	$11,$AA,$0,$0,$11,$AA,$0,$0,$11,$AA
       00:0479: 11 AA 00 00 
       00:047D: 11 AA 
  2882 00:047F: 00 00 11 AA  	db	$0,$0,$11,$AA,$0,$0,$7A,$AA,$66,$66
       00:0483: 00 00 7A AA 
       00:0487: 66 66 
  2883 00:0489: 14 AA FF FF  	db	$14,$AA,$FF,$FF,$11,$AA,$FF,$F0
  Tue Jun 17 2025  1:16                                                                                                    Page 54


       00:048D: 11 AA FF F0 
  2884 00:0491:              	ends
  2885                        	data
  2886                        L78:
  2887 00:0491: 11 AA 11 11  	db	$11,$AA,$11,$11,$11,$B0,$10,$0,$11,$C0
       00:0495: 11 B0 10 00 
       00:0499: 11 C0 
  2888 00:049B: 20 00 7F 00  	db	$20,$0,$7F,$0,$0,$1,$11,$A0,$11,$11
       00:049F: 00 01 11 A0 
       00:04A3: 11 11 
  2889 00:04A5: 11 D0 00 04  	db	$11,$D0,$0,$4,$11,$E0,$0,$7,$11,$AA
       00:04A9: 11 E0 00 07 
       00:04AD: 11 AA 
  2890 00:04AF: 11 11 11 DD  	db	$11,$11,$11,$DD,$0,$1,$B5,$DE,$0,$1
       00:04B3: 00 01 B5 DE 
       00:04B7: 00 01 
  2891 00:04B9: 7F 00 FF FC  	db	$7F,$0,$FF,$FC,$7F,$10,$0,$1,$7F,$0
       00:04BD: 7F 10 00 01 
       00:04C1: 7F 00 
  2892 00:04C3: 00 02 11 AA  	db	$0,$2,$11,$AA,$22,$22,$4F,$1,$0,$0
       00:04C7: 22 22 4F 01 
       00:04CB: 00 00 
  2893 00:04CD: 12 AA 66 66  	db	$12,$AA,$66,$66,$0,$0,$0,$0
       00:04D1: 00 00 00 00 
  2894 00:04D5:              	ends
  2895                        	data
  2896                        L80:
  2897 00:04D5: 11 AA 11 11  	db	$11,$AA,$11,$11,$11,$B0,$10,$0,$11,$C0
       00:04D9: 11 B0 10 00 
       00:04DD: 11 C0 
  2898 00:04DF: 20 00 66 00  	db	$20,$0,$66,$0,$0,$1,$11,$A0,$11,$11
       00:04E3: 00 01 11 A0 
       00:04E7: 11 11 
  2899 00:04E9: 11 D0 00 04  	db	$11,$D0,$0,$4,$11,$E0,$0,$7,$11,$AA
       00:04ED: 11 E0 00 07 
       00:04F1: 11 AA 
  2900 00:04F3: 11 11 11 DD  	db	$11,$11,$11,$DD,$0,$1,$B5,$DE,$0,$1
       00:04F7: 00 01 B5 DE 
       00:04FB: 00 01 
  2901 00:04FD: 66 00 FF FC  	db	$66,$0,$FF,$FC,$6C,$10,$0,$1,$66,$0
       00:0501: 6C 10 00 01 
       00:0505: 66 00 
  2902 00:0507: 00 02 11 AA  	db	$0,$2,$11,$AA,$22,$22,$44,$0,$0,$0
       00:050B: 22 22 44 00 
       00:050F: 00 00 
  2903 00:0511: 12 AA 66 66  	db	$12,$AA,$66,$66,$0,$0,$0,$0
       00:0515: 00 00 00 00 
  2904 00:0519:              	ends
  2905                        	data
  2906                        L82:
  2907 00:0519: 11 A0 FF FF  	db	$11,$A0,$FF,$FF,$11,$B0,$0,$3,$31,$A0
       00:051D: 11 B0 00 03 
       00:0521: 31 A0 
  2908 00:0523: A0 B0 71 B0  	db	$A0,$B0,$71,$B0,$0,$0,$11,$B0,$27,$10
       00:0527: 00 00 11 B0 
       00:052B: 27 10 
  2909 00:052D: 31 A0 A0 B0  	db	$31,$A0,$A0,$B0,$71,$B0,$0,$0,$11,$BB
       00:0531: 71 B0 00 00 
  Tue Jun 17 2025  1:16                                                                                                    Page 55


       00:0535: 11 BB 
  2910 00:0537: D8 EE 31 A0  	db	$D8,$EE,$31,$A0,$A0,$B0
       00:053B: A0 B0 
  2911 00:053D:              	ends
  2912                        	data
  2913                        L84:
  2914 00:053D: 11 A0 27 10  	db	$11,$A0,$27,$10,$11,$B0,$17,$70,$32,$A0
       00:0541: 11 B0 17 70 
       00:0545: 32 A0 
  2915 00:0547: A0 B0 32 A0  	db	$A0,$B0,$32,$A0,$A0,$B0,$11,$AA,$7,$D0
       00:054B: A0 B0 11 AA 
       00:054F: 07 D0 
  2916 00:0551:              	ends
  2917                        	data
  2918                        L86:
  2919 00:0551: 11 A0 56 78  	db	$11,$A0,$56,$78,$11,$B0,$F,$F0,$33,$A0
       00:0555: 11 B0 0F F0 
       00:0559: 33 A0 
  2920 00:055B: A0 B0 11 B0  	db	$A0,$B0,$11,$B0,$59,$88,$32,$A0,$A0,$B0
       00:055F: 59 88 32 A0 
       00:0563: A0 B0 
  2921 00:0565:              	ends
  2922                        	data
  2923                        L88:
  2924 00:0565: 11 A0 56 78  	db	$11,$A0,$56,$78,$11,$B0,$F,$F0,$34,$A0
       00:0569: 11 B0 0F F0 
       00:056D: 34 A0 
  2925 00:056F: A0 B0 11 B0  	db	$A0,$B0,$11,$B0,$6,$70,$32,$A0,$A0,$B0
       00:0573: 06 70 32 A0 
       00:0577: A0 B0 
  2926 00:0579:              	ends
  2927                        	data
  2928                        L90:
  2929 00:0579: 11 A0 56 78  	db	$11,$A0,$56,$78,$11,$B0,$F,$F0,$35,$A0
       00:057D: 11 B0 0F F0 
       00:0581: 35 A0 
  2930 00:0583: A0 B0 11 B0  	db	$A0,$B0,$11,$B0,$5F,$F8,$32,$A0,$A0,$B0
       00:0587: 5F F8 32 A0 
       00:058B: A0 B0 
  2931 00:058D:              	ends
  2932                        	data
  2933                        L92:
  2934 00:058D: 11 A0 56 78  	db	$11,$A0,$56,$78,$11,$B0,$0,$8,$36,$A0
       00:0591: 11 B0 00 08 
       00:0595: 36 A0 
  2935 00:0597: A0 B0 37 A0  	db	$A0,$B0,$37,$A0,$A0,$B0,$11,$B0,$56,$78
       00:059B: A0 B0 11 B0 
       00:059F: 56 78 
  2936 00:05A1: 32 A0 A0 B0  	db	$32,$A0,$A0,$B0
  2937 00:05A5:              	ends
  2938                        	data
  2939                        L94:
  2940 00:05A5: 11 AA 88 88  	db	$11,$AA,$88,$88,$11,$B0,$0,$10,$36,$A0
       00:05A9: 11 B0 00 10 
       00:05AD: 36 A0 
  2941 00:05AF: A0 B0 38 A0  	db	$A0,$B0,$38,$A0,$A0,$B0,$11,$AA,$77,$78
       00:05B3: A0 B0 11 AA 
       00:05B7: 77 78 
  Tue Jun 17 2025  1:16                                                                                                    Page 56


  2942 00:05B9:              	ends
  2943                        	data
  2944                        L96:
  2945 00:05B9: 11 A0 88 88  	db	$11,$A0,$88,$88,$11,$B0,$99,$99,$3A,$A0
       00:05BD: 11 B0 99 99 
       00:05C1: 3A A0 
  2946 00:05C3: A0 B0 11 AA  	db	$A0,$B0,$11,$AA,$FF,$FF,$11,$A0,$0,$88
       00:05C7: FF FF 11 A0 
       00:05CB: 00 88 
  2947 00:05CD: 11 B0 00 88  	db	$11,$B0,$0,$88,$3A,$A0,$A0,$B0,$11,$AA
       00:05D1: 3A A0 A0 B0 
       00:05D5: 11 AA 
  2948 00:05D7: FF FF 11 A0  	db	$FF,$FF,$11,$A0,$FF,$E7,$11,$B0,$FF,$F0
       00:05DB: FF E7 11 B0 
       00:05DF: FF F0 
  2949 00:05E1: 3A A0 A0 B0  	db	$3A,$A0,$A0,$B0,$11,$AA,$FF,$FF
       00:05E5: 11 AA FF FF 
  2950 00:05E9:              	ends
  2951                        	data
  2952                        L98:
  2953 00:05E9: 11 A0 66 66  	db	$11,$A0,$66,$66,$11,$B0,$99,$99,$3B,$A0
       00:05ED: 11 B0 99 99 
       00:05F1: 3B A0 
  2954 00:05F3: A0 B0 11 AA  	db	$A0,$B0,$11,$AA,$FF,$FF
       00:05F7: FF FF 
  2955 00:05F9:              	ends
  2956                        	data
  2957                        L100:
  2958 00:05F9: 71 A0 77 77  	db	$71,$A0,$77,$77,$11,$AA,$77,$77,$71,$B0
       00:05FD: 11 AA 77 77 
       00:0601: 71 B0 
  2959 00:0603: 66 66 11 BB  	db	$66,$66,$11,$BB,$66,$66,$21,$C0,$A0,$B0
       00:0607: 66 66 21 C0 
       00:060B: A0 B0 
  2960 00:060D: 22 D0 A0 B0  	db	$22,$D0,$A0,$B0,$14,$CC,$FF,$FF,$14,$DD
       00:0611: 14 CC FF FF 
       00:0615: 14 DD 
  2961 00:0617: FF FF 32 A0  	db	$FF,$FF,$32,$A0,$D0,$C0,$12,$AA,$5F,$92
       00:061B: D0 C0 12 AA 
       00:061F: 5F 92 
  2962 00:0621:              	ends
  2963                        	data
  2964                        L102:
  2965 00:0621: 71 A0 99 99  	db	$71,$A0,$99,$99,$15,$AA,$99,$99,$71,$B0
       00:0625: 15 AA 99 99 
       00:0629: 71 B0 
  2966 00:062B: 88 88 15 BB  	db	$88,$88,$15,$BB,$88,$88,$21,$C0,$A0,$B0
       00:062F: 88 88 21 C0 
       00:0633: A0 B0 
  2967 00:0635: 23 D0 A0 B0  	db	$23,$D0,$A0,$B0,$14,$CC,$FF,$FF,$14,$DD
       00:0639: 14 CC FF FF 
       00:063D: 14 DD 
  2968 00:063F: FF FF 32 A0  	db	$FF,$FF,$32,$A0,$C0,$D0,$12,$AA,$5C,$2A
       00:0643: C0 D0 12 AA 
       00:0647: 5C 2A 
  2969 00:0649:              	ends
  2970                        	data
  2971                        L104:
  Tue Jun 17 2025  1:16                                                                                                    Page 57


  2972 00:0649: 71 A0 99 99  	db	$71,$A0,$99,$99,$15,$AA,$99,$99,$71,$B0
       00:064D: 15 AA 99 99 
       00:0651: 71 B0 
  2973 00:0653: 88 88 15 BB  	db	$88,$88,$15,$BB,$88,$88,$21,$C0,$A0,$B0
       00:0657: 88 88 21 C0 
       00:065B: A0 B0 
  2974 00:065D: 24 D0 A0 B0  	db	$24,$D0,$A0,$B0,$14,$CC,$FF,$FF,$14,$DD
       00:0661: 14 CC FF FF 
       00:0665: 14 DD 
  2975 00:0667: FF FF 32 A0  	db	$FF,$FF,$32,$A0,$C0,$D0,$12,$AA,$7E,$4B
       00:066B: C0 D0 12 AA 
       00:066F: 7E 4B 
  2976 00:0671:              	ends
  2977                        	data
  2978                        L106:
  2979 00:0671: 71 A0 77 77  	db	$71,$A0,$77,$77,$15,$AA,$77,$77,$71,$B0
       00:0675: 15 AA 77 77 
       00:0679: 71 B0 
  2980 00:067B: 00 00 15 BB  	db	$0,$0,$15,$BB,$55,$55,$25,$C0,$A0,$B0
       00:067F: 55 55 25 C0 
       00:0683: A0 B0 
  2981 00:0685: 14 CC FF FF  	db	$14,$CC,$FF,$FF,$12,$AC,$66,$67
       00:0689: 12 AC 66 67 
  2982 00:068D:              	ends
  2983                        	data
  2984                        L108:
  2985 00:068D: 71 A0 CC CC  	db	$71,$A0,$CC,$CC,$15,$AA,$CC,$CC,$71,$B0
       00:0691: 15 AA CC CC 
       00:0695: 71 B0 
  2986 00:0697: 00 00 15 BB  	db	$0,$0,$15,$BB,$88,$88,$26,$C0,$A0,$B0
       00:069B: 88 88 26 C0 
       00:069F: A0 B0 
  2987 00:06A1: 14 CC FF FF  	db	$14,$CC,$FF,$FF,$12,$CC,$30,$0,$12,$AC
       00:06A5: 12 CC 30 00 
       00:06A9: 12 AC 
  2988 00:06AB: 50 01        	db	$50,$1
  2989 00:06AD:              	ends
  2990                        	data
  2991                        L110:
  2992 00:06AD: 71 A0 77 77  	db	$71,$A0,$77,$77,$15,$AA,$77,$77,$71,$B0
       00:06B1: 15 AA 77 77 
       00:06B5: 71 B0 
  2993 00:06B7: 00 00 15 BB  	db	$0,$0,$15,$BB,$55,$55,$27,$C0,$A0,$B0
       00:06BB: 55 55 27 C0 
       00:06BF: A0 B0 
  2994 00:06C1: 14 CC FF FF  	db	$14,$CC,$FF,$FF,$12,$AC,$44,$44
       00:06C5: 12 AC 44 44 
  2995 00:06C9:              	ends
  2996                        	data
  2997                        L112:
  2998 00:06C9: 71 A0 CC CC  	db	$71,$A0,$CC,$CC,$15,$AA,$CC,$CC,$71,$B0
       00:06CD: 15 AA CC CC 
       00:06D1: 71 B0 
  2999 00:06D3: 00 00 15 BB  	db	$0,$0,$15,$BB,$88,$88,$28,$C0,$A0,$B0
       00:06D7: 88 88 28 C0 
       00:06DB: A0 B0 
  3000 00:06DD: 14 CC FF FF  	db	$14,$CC,$FF,$FF,$12,$AC,$44,$44
       00:06E1: 12 AC 44 44 
  Tue Jun 17 2025  1:16                                                                                                    Page 58


  3001 00:06E5:              	ends
  3002                        	data
  3003                        L114:
  3004 00:06E5: 11 A0 88 88  	db	$11,$A0,$88,$88,$C1,$AA,$0,$0,$11,$AA
       00:06E9: C1 AA 00 00 
       00:06ED: 11 AA 
  3005 00:06EF: FF FF 11 A0  	db	$FF,$FF,$11,$A0,$0,$88,$C1,$AA,$0,$0
       00:06F3: 00 88 C1 AA 
       00:06F7: 00 00 
  3006 00:06F9:              	ends
  3007                        	data
  3008                        L116:
  3009 00:06F9: 11 A0 88 88  	db	$11,$A0,$88,$88,$C3,$AA,$0,$0,$11,$AA
       00:06FD: C3 AA 00 00 
       00:0701: 11 AA 
  3010 00:0703: FF FF 11 A0  	db	$FF,$FF,$11,$A0,$0,$88,$C3,$AA,$0,$0
       00:0707: 00 88 C3 AA 
       00:070B: 00 00 
  3011 00:070D: 11 AA FF FF  	db	$11,$AA,$FF,$FF
  3012 00:0711:              	ends
  3013                        	data
  3014                        L118:
  3015 00:0711: 11 A0 00 00  	db	$11,$A0,$0,$0,$C4,$AA,$0,$0,$11,$AA
       00:0715: C4 AA 00 00 
       00:0719: 11 AA 
  3016 00:071B: FF FF 11 A0  	db	$FF,$FF,$11,$A0,$0,$88,$C4,$AA,$0,$0
       00:071F: 00 88 C4 AA 
       00:0723: 00 00 
  3017 00:0725:              	ends
  3018                        	data
  3019                        L120:
  3020 00:0725: 11 A0 88 88  	db	$11,$A0,$88,$88,$C6,$AA,$0,$0,$11,$A0
       00:0729: C6 AA 00 00 
       00:072D: 11 A0 
  3021 00:072F: 00 88 C6 AA  	db	$0,$88,$C6,$AA,$0,$0,$11,$AA,$FF,$FF
       00:0733: 00 00 11 AA 
       00:0737: FF FF 
  3022 00:0739:              	ends
  3023                        	data
  3024                        L122:
  3025 00:0739: 1E A0 27 10  	db	$1E,$A0,$27,$10,$DD,$BA,$0,$0,$32,$A0
       00:073D: DD BA 00 00 
       00:0741: 32 A0 
  3026 00:0743: A0 B0        	db	$A0,$B0
  3027 00:0745:              	ends
  3028                        	data
  3029                        L124:
  3030 00:0745: 1E A0 27 10  	db	$1E,$A0,$27,$10,$DD,$BA,$0,$0,$32,$A0
       00:0749: DD BA 00 00 
       00:074D: 32 A0 
  3031 00:074F: A0 B0 D0 B0  	db	$A0,$B0,$D0,$B0,$0,$0,$32,$A0,$A0,$B0
       00:0753: 00 00 32 A0 
       00:0757: A0 B0 
  3032 00:0759:              	ends
  3033                        	data
  3034                        L126:
  3035 00:0759: 11 A0 27 10  	db	$11,$A0,$27,$10,$DE,$AA,$0,$0,$DE,$AA
       00:075D: DE AA 00 00 
  Tue Jun 17 2025  1:16                                                                                                    Page 59


       00:0761: DE AA 
  3036 00:0763: 00 00 12 AA  	db	$0,$0,$12,$AA,$27,$10
       00:0767: 27 10 
  3037 00:0769:              	ends
  3038                        	data
  3039                        L128:
  3040 00:0769: 11 AA 56 78  	db	$11,$AA,$56,$78,$DF,$AA,$0,$0,$DF,$AA
       00:076D: DF AA 00 00 
       00:0771: DF AA 
  3041 00:0773: 00 00 12 AA  	db	$0,$0,$12,$AA,$56,$78
       00:0777: 56 78 
  3042 00:0779:              	ends
  3043                        	data
  3044                        L130:
  3045 00:0779: 11 A0 00 66  	db	$11,$A0,$0,$66,$51,$A0,$0,$0,$A1,$B0
       00:077D: 51 A0 00 00 
       00:0781: A1 B0 
  3046 00:0783: 00 00 11 BA  	db	$0,$0,$11,$BA,$0,$22,$11,$11,$0,$1
       00:0787: 00 22 11 11 
       00:078B: 00 01 
  3047 00:078D: 51 B1 00 00  	db	$51,$B1,$0,$0,$A1,$A1,$0,$0,$A1,$B0
       00:0791: A1 A1 00 00 
       00:0795: A1 B0 
  3048 00:0797: 00 00 31 A0  	db	$0,$0,$31,$A0,$A0,$B0,$11,$AA,$10,$0
       00:079B: A0 B0 11 AA 
       00:079F: 10 00 
  3049 00:07A1: 12 AA 0F EE  	db	$12,$AA,$F,$EE
  3050 00:07A5:              	ends
  3051                        	data
  3052                        L132:
  3053 00:07A5: 11 A0 66 66  	db	$11,$A0,$66,$66,$52,$A0,$0,$0,$A2,$B0
       00:07A9: 52 A0 00 00 
       00:07AD: A2 B0 
  3054 00:07AF: 00 00 11 BA  	db	$0,$0,$11,$BA,$22,$22,$11,$11,$0,$2
       00:07B3: 22 22 11 11 
       00:07B7: 00 02 
  3055 00:07B9: 52 B1 00 00  	db	$52,$B1,$0,$0,$A2,$A1,$0,$0,$A2,$B0
       00:07BD: A2 A1 00 00 
       00:07C1: A2 B0 
  3056 00:07C3: 00 00 31 A0  	db	$0,$0,$31,$A0,$A0,$B0,$11,$AA,$70,$0
       00:07C7: A0 B0 11 AA 
       00:07CB: 70 00 
  3057 00:07CD: 12 AA 5E EE  	db	$12,$AA,$5E,$EE
  3058 00:07D1:              	ends
  3059                        	data
  3060                        L134:
  3061 00:07D1: 11 A0 66 66  	db	$11,$A0,$66,$66,$16,$AA,$0,$8,$54,$A0
       00:07D5: 16 AA 00 08 
       00:07D9: 54 A0 
  3062 00:07DB: 00 00 A4 B0  	db	$0,$0,$A4,$B0,$0,$0,$11,$BA,$22,$22
       00:07DF: 00 00 11 BA 
       00:07E3: 22 22 
  3063 00:07E5: 11 11 00 04  	db	$11,$11,$0,$4,$54,$B1,$0,$0,$A4,$A1
       00:07E9: 54 B1 00 00 
       00:07ED: A4 A1 
  3064 00:07EF: 00 00 A4 B0  	db	$0,$0,$A4,$B0,$0,$0,$31,$A0,$A0,$B0
       00:07F3: 00 00 31 A0 
       00:07F7: A0 B0 
  Tue Jun 17 2025  1:16                                                                                                    Page 60


  3065 00:07F9: 17 AA 00 08  	db	$17,$AA,$0,$8,$12,$AA,$70,$0,$12,$AA
       00:07FD: 12 AA 70 00 
       00:0801: 12 AA 
  3066 00:0803: 5C EE        	db	$5C,$EE
  3067 00:0805:              	ends
  3068                        	data
  3069                        L136:
  3070 00:0805: 11 A0 00 66  	db	$11,$A0,$0,$66,$51,$A0,$0,$0,$AB,$B0
       00:0809: 51 A0 00 00 
       00:080D: AB B0 
  3071 00:080F: 00 00 11 BA  	db	$0,$0,$11,$BA,$0,$22,$11,$11,$0,$1
       00:0813: 00 22 11 11 
       00:0817: 00 01 
  3072 00:0819: 51 B1 00 00  	db	$51,$B1,$0,$0,$AB,$A1,$0,$0,$AB,$B0
       00:081D: AB A1 00 00 
       00:0821: AB B0 
  3073 00:0823: 00 00 31 A0  	db	$0,$0,$31,$A0,$A0,$B0,$11,$AA,$10,$0
       00:0827: A0 B0 11 AA 
       00:082B: 10 00 
  3074 00:082D: 12 AA 10 EE  	db	$12,$AA,$10,$EE
  3075 00:0831:              	ends
  3076                        	data
  3077                        L138:
  3078 00:0831: 11 A0 66 66  	db	$11,$A0,$66,$66,$52,$A0,$0,$0,$AD,$B0
       00:0835: 52 A0 00 00 
       00:0839: AD B0 
  3079 00:083B: 00 00 11 BA  	db	$0,$0,$11,$BA,$22,$22,$11,$11,$0,$2
       00:083F: 22 22 11 11 
       00:0843: 00 02 
  3080 00:0845: 52 B1 00 00  	db	$52,$B1,$0,$0,$AD,$A1,$0,$0,$AD,$B0
       00:0849: AD A1 00 00 
       00:084D: AD B0 
  3081 00:084F: 00 00 31 A0  	db	$0,$0,$31,$A0,$A0,$B0,$12,$AA,$70,$0
       00:0853: A0 B0 12 AA 
       00:0857: 70 00 
  3082 00:0859: 12 AA 7E EE  	db	$12,$AA,$7E,$EE
  3083 00:085D:              	ends
  3084                        	data
  3085                        L140:
  3086 00:085D: 11 AA 11 11  	db	$11,$AA,$11,$11,$11,$B0,$10,$0,$11,$C0
       00:0861: 11 B0 10 00 
       00:0865: 11 C0 
  3087 00:0867: 20 00 B1 BC  	db	$20,$0,$B1,$BC,$0,$1,$11,$A0,$11,$11
       00:086B: 00 01 11 A0 
       00:086F: 11 11 
  3088 00:0871: 11 B0 20 00  	db	$11,$B0,$20,$0,$11,$C0,$10,$0,$B1,$BC
       00:0875: 11 C0 10 00 
       00:0879: B1 BC 
  3089 00:087B: 00 01 11 AA  	db	$0,$1,$11,$AA,$22,$22,$11,$D0,$0,$4
       00:087F: 22 22 11 D0 
       00:0883: 00 04 
  3090 00:0885: 11 E0 00 07  	db	$11,$E0,$0,$7,$11,$AA,$11,$11,$11,$DD
       00:0889: 11 AA 11 11 
       00:088D: 11 DD 
  3091 00:088F: 00 01 B1 DE  	db	$0,$1,$B1,$DE,$FF,$FD,$12,$AA,$66,$66
       00:0893: FF FD 12 AA 
       00:0897: 66 66 
  3092 00:0899:              	ends
  Tue Jun 17 2025  1:16                                                                                                    Page 61


  3093                        	data
  3094                        L142:
  3095 00:0899: 11 AA 11 11  	db	$11,$AA,$11,$11,$11,$B0,$10,$0,$11,$C0
       00:089D: 11 B0 10 00 
       00:08A1: 11 C0 
  3096 00:08A3: 20 00 B2 BC  	db	$20,$0,$B2,$BC,$0,$1,$11,$A0,$11,$11
       00:08A7: 00 01 11 A0 
       00:08AB: 11 11 
  3097 00:08AD: 11 B0 20 00  	db	$11,$B0,$20,$0,$11,$C0,$20,$0,$B2,$BC
       00:08B1: 11 C0 20 00 
       00:08B5: B2 BC 
  3098 00:08B7: 00 01 11 AA  	db	$0,$1,$11,$AA,$22,$22,$11,$D0,$0,$4
       00:08BB: 22 22 11 D0 
       00:08BF: 00 04 
  3099 00:08C1: 11 E0 00 07  	db	$11,$E0,$0,$7,$11,$AA,$11,$11,$11,$DD
       00:08C5: 11 AA 11 11 
       00:08C9: 11 DD 
  3100 00:08CB: 00 01 B2 DE  	db	$0,$1,$B2,$DE,$FF,$FD,$12,$AA,$55,$55
       00:08CF: FF FD 12 AA 
       00:08D3: 55 55 
  3101 00:08D5:              	ends
  3102                        	data
  3103                        L144:
  3104 00:08D5: 11 AA 11 11  	db	$11,$AA,$11,$11,$11,$B0,$10,$0,$11,$C0
       00:08D9: 11 B0 10 00 
       00:08DD: 11 C0 
  3105 00:08DF: 20 00 B3 BC  	db	$20,$0,$B3,$BC,$0,$1,$11,$A0,$11,$11
       00:08E3: 00 01 11 A0 
       00:08E7: 11 11 
  3106 00:08E9: 11 D0 00 04  	db	$11,$D0,$0,$4,$11,$E0,$0,$7,$11,$AA
       00:08ED: 11 E0 00 07 
       00:08F1: 11 AA 
  3107 00:08F3: 11 11 11 DD  	db	$11,$11,$11,$DD,$0,$1,$B3,$DE,$FF,$FD
       00:08F7: 00 01 B3 DE 
       00:08FB: FF FD 
  3108 00:08FD: 12 AA 44 44  	db	$12,$AA,$44,$44
  3109 00:0901:              	ends
  3110                        	data
  3111                        L146:
  3112 00:0901: 11 AA 11 11  	db	$11,$AA,$11,$11,$11,$B0,$20,$0,$11,$C0
       00:0905: 11 B0 20 00 
       00:0909: 11 C0 
  3113 00:090B: 20 00 B4 BC  	db	$20,$0,$B4,$BC,$0,$1,$11,$A0,$11,$11
       00:090F: 00 01 11 A0 
       00:0913: 11 11 
  3114 00:0915: 11 B0 10 00  	db	$11,$B0,$10,$0,$11,$C0,$20,$0,$B4,$BC
       00:0919: 11 C0 20 00 
       00:091D: B4 BC 
  3115 00:091F: 00 01 11 A0  	db	$0,$1,$11,$A0,$22,$22,$12,$AA,$22,$22
       00:0923: 22 22 12 AA 
       00:0927: 22 22 
  3116 00:0929:              	ends
  3117                        	data
  3118                        L148:
  3119 00:0929: 11 AA 11 11  	db	$11,$AA,$11,$11,$11,$B0,$20,$0,$11,$C0
       00:092D: 11 B0 20 00 
       00:0931: 11 C0 
  3120 00:0933: 10 00 B5 BC  	db	$10,$0,$B5,$BC,$0,$1,$11,$A0,$11,$11
  Tue Jun 17 2025  1:16                                                                                                    Page 62


       00:0937: 00 01 11 A0 
       00:093B: 11 11 
  3121 00:093D: 11 B0 20 00  	db	$11,$B0,$20,$0,$11,$C0,$20,$0,$B5,$BC
       00:0941: 11 C0 20 00 
       00:0945: B5 BC 
  3122 00:0947: 00 01 11 AA  	db	$0,$1,$11,$AA,$22,$22,$11,$D0,$0,$7
       00:094B: 22 22 11 D0 
       00:094F: 00 07 
  3123 00:0951: 11 E0 00 04  	db	$11,$E0,$0,$4,$11,$AA,$11,$11,$12,$DD
       00:0955: 11 AA 11 11 
       00:0959: 12 DD 
  3124 00:095B: 00 01 B5 DE  	db	$0,$1,$B5,$DE,$FF,$FD,$12,$AA,$55,$55
       00:095F: FF FD 12 AA 
       00:0963: 55 55 
  3125 00:0965:              	ends
  3126                        	data
  3127                        L150:
  3128 00:0965: 11 AA 11 11  	db	$11,$AA,$11,$11,$11,$B0,$20,$0,$11,$C0
       00:0969: 11 B0 20 00 
       00:096D: 11 C0 
  3129 00:096F: 10 00 B6 BC  	db	$10,$0,$B6,$BC,$0,$1,$11,$A0,$11,$11
       00:0973: 00 01 11 A0 
       00:0977: 11 11 
  3130 00:0979: 11 B0 20 00  	db	$11,$B0,$20,$0,$11,$C0,$20,$0,$B6,$BC
       00:097D: 11 C0 20 00 
       00:0981: B6 BC 
  3131 00:0983: 00 01 11 AA  	db	$0,$1,$11,$AA,$22,$22,$11,$D0,$0,$7
       00:0987: 22 22 11 D0 
       00:098B: 00 07 
  3132 00:098D: 11 E0 00 04  	db	$11,$E0,$0,$4,$11,$AA,$11,$11,$12,$DD
       00:0991: 11 AA 11 11 
       00:0995: 12 DD 
  3133 00:0997: 00 01 B6 DE  	db	$0,$1,$B6,$DE,$FF,$FD,$12,$AA,$66,$66
       00:099B: FF FD 12 AA 
       00:099F: 66 66 
  3134 00:09A1:              	ends
  3135                        	data
  3136                        L152:
  3137 00:09A1: 11 AA 11 11  	db	$11,$AA,$11,$11,$11,$B0,$10,$0,$11,$C0
       00:09A5: 11 B0 10 00 
       00:09A9: 11 C0 
  3138 00:09AB: 90 00 BA BC  	db	$90,$0,$BA,$BC,$0,$1,$11,$A0,$11,$11
       00:09AF: 00 01 11 A0 
       00:09B3: 11 11 
  3139 00:09B5: 11 B0 90 00  	db	$11,$B0,$90,$0,$11,$C0,$10,$0,$BA,$BC
       00:09B9: 11 C0 10 00 
       00:09BD: BA BC 
  3140 00:09BF: 00 01 11 AA  	db	$0,$1,$11,$AA,$22,$22,$11,$D0,$90,$4
       00:09C3: 22 22 11 D0 
       00:09C7: 90 04 
  3141 00:09C9: 11 E0 90 07  	db	$11,$E0,$90,$7,$11,$AA,$11,$11,$11,$DD
       00:09CD: 11 AA 11 11 
       00:09D1: 11 DD 
  3142 00:09D3: 00 01 BA DE  	db	$0,$1,$BA,$DE,$FF,$FD,$12,$AA,$66,$66
       00:09D7: FF FD 12 AA 
       00:09DB: 66 66 
  3143 00:09DD:              	ends
  3144                        	data
  Tue Jun 17 2025  1:16                                                                                                    Page 63


  3145                        L154:
  3146 00:09DD: 11 AA 11 11  	db	$11,$AA,$11,$11,$11,$B0,$10,$0,$11,$C0
       00:09E1: 11 B0 10 00 
       00:09E5: 11 C0 
  3147 00:09E7: 90 00 BB BC  	db	$90,$0,$BB,$BC,$0,$1,$11,$A0,$11,$11
       00:09EB: 00 01 11 A0 
       00:09EF: 11 11 
  3148 00:09F1: 11 B0 90 00  	db	$11,$B0,$90,$0,$11,$C0,$10,$0,$BB,$BC
       00:09F5: 11 C0 10 00 
       00:09F9: BB BC 
  3149 00:09FB: 00 01 11 AA  	db	$0,$1,$11,$AA,$22,$22,$11,$D0,$90,$4
       00:09FF: 22 22 11 D0 
       00:0A03: 90 04 
  3150 00:0A05: 11 E0 90 07  	db	$11,$E0,$90,$7,$11,$AA,$11,$11,$11,$DD
       00:0A09: 11 AA 11 11 
       00:0A0D: 11 DD 
  3151 00:0A0F: 00 01 BB DE  	db	$0,$1,$BB,$DE,$FF,$FD,$12,$AA,$77,$77
       00:0A13: FF FD 12 AA 
       00:0A17: 77 77 
  3152 00:0A19:              	ends
  3153                        	data
  3154                        L156:
  3155 00:0A19: 11 AA 11 11  	db	$11,$AA,$11,$11,$11,$B0,$90,$0,$11,$C0
       00:0A1D: 11 B0 90 00 
       00:0A21: 11 C0 
  3156 00:0A23: 10 00 BC BC  	db	$10,$0,$BC,$BC,$0,$1,$11,$A0,$11,$11
       00:0A27: 00 01 11 A0 
       00:0A2B: 11 11 
  3157 00:0A2D: 11 B0 10 00  	db	$11,$B0,$10,$0,$11,$C0,$90,$0,$BC,$BC
       00:0A31: 11 C0 90 00 
       00:0A35: BC BC 
  3158 00:0A37: 00 01 11 AA  	db	$0,$1,$11,$AA,$22,$22,$11,$D0,$90,$7
       00:0A3B: 22 22 11 D0 
       00:0A3F: 90 07 
  3159 00:0A41: 11 E0 90 04  	db	$11,$E0,$90,$4,$11,$AA,$11,$11,$12,$DD
       00:0A45: 11 AA 11 11 
       00:0A49: 12 DD 
  3160 00:0A4B: 00 01 BC DE  	db	$0,$1,$BC,$DE,$FF,$FD,$12,$AA,$77,$77
       00:0A4F: FF FD 12 AA 
       00:0A53: 77 77 
  3161 00:0A55:              	ends
  3162                        	data
  3163                        L158:
  3164 00:0A55: 11 AA 11 11  	db	$11,$AA,$11,$11,$11,$B0,$90,$0,$11,$C0
       00:0A59: 11 B0 90 00 
       00:0A5D: 11 C0 
  3165 00:0A5F: 10 00 BD BC  	db	$10,$0,$BD,$BC,$0,$1,$11,$A0,$11,$11
       00:0A63: 00 01 11 A0 
       00:0A67: 11 11 
  3166 00:0A69: 11 B0 10 00  	db	$11,$B0,$10,$0,$11,$C0,$90,$0,$BD,$BC
       00:0A6D: 11 C0 90 00 
       00:0A71: BD BC 
  3167 00:0A73: 00 01 11 AA  	db	$0,$1,$11,$AA,$22,$22,$11,$D0,$90,$7
       00:0A77: 22 22 11 D0 
       00:0A7B: 90 07 
  3168 00:0A7D: 11 E0 90 04  	db	$11,$E0,$90,$4,$11,$AA,$11,$11,$12,$DD
       00:0A81: 11 AA 11 11 
       00:0A85: 12 DD 
  Tue Jun 17 2025  1:16                                                                                                    Page 64


  3169 00:0A87: 00 01 BD DE  	db	$0,$1,$BD,$DE,$FF,$FD,$12,$AA,$66,$66
       00:0A8B: FF FD 12 AA 
       00:0A8F: 66 66 
  3170 00:0A91:              	ends
  3171                        	data
  3172                        L160:
  3173 00:0A91: 11 AA 11 11  	db	$11,$AA,$11,$11,$11,$B0,$90,$0,$81,$B0
       00:0A95: 11 B0 90 00 
       00:0A99: 81 B0 
  3174 00:0A9B: 00 01 11 AA  	db	$0,$1,$11,$AA,$11,$11,$11,$B0,$20,$0
       00:0A9F: 11 11 11 B0 
       00:0AA3: 20 00 
  3175 00:0AA5: 81 B0 00 01  	db	$81,$B0,$0,$1,$11,$AA,$22,$22,$12,$D0
       00:0AA9: 11 AA 22 22 
       00:0AAD: 12 D0 
  3176 00:0AAF: 00 04 11 AA  	db	$0,$4,$11,$AA,$11,$11,$11,$DD,$0,$1
       00:0AB3: 11 11 11 DD 
       00:0AB7: 00 01 
  3177 00:0AB9: 81 D0 FF FD  	db	$81,$D0,$FF,$FD,$12,$AA,$77,$77
       00:0ABD: 12 AA 77 77 
  3178 00:0AC1:              	ends
  3179                        	data
  3180                        L162:
  3181 00:0AC1: 11 AA 11 11  	db	$11,$AA,$11,$11,$11,$B0,$90,$0,$82,$B0
       00:0AC5: 11 B0 90 00 
       00:0AC9: 82 B0 
  3182 00:0ACB: 00 01 11 AA  	db	$0,$1,$11,$AA,$11,$11,$11,$B0,$0,$0
       00:0ACF: 11 11 11 B0 
       00:0AD3: 00 00 
  3183 00:0AD5: 82 B0 00 01  	db	$82,$B0,$0,$1,$11,$AA,$22,$22,$12,$D0
       00:0AD9: 11 AA 22 22 
       00:0ADD: 12 D0 
  3184 00:0ADF: 00 04 11 AA  	db	$0,$4,$11,$AA,$11,$11,$11,$DD,$0,$1
       00:0AE3: 11 11 11 DD 
       00:0AE7: 00 01 
  3185 00:0AE9: 82 D0 FF FD  	db	$82,$D0,$FF,$FD,$12,$AA,$66,$66
       00:0AED: 12 AA 66 66 
  3186 00:0AF1:              	ends
  3187                        	data
  3188                        L164:
  3189 00:0AF1: 11 AA 11 11  	db	$11,$AA,$11,$11,$11,$B0,$10,$0,$83,$B0
       00:0AF5: 11 B0 10 00 
       00:0AF9: 83 B0 
  3190 00:0AFB: 00 01 11 AA  	db	$0,$1,$11,$AA,$11,$11,$11,$D0,$0,$4
       00:0AFF: 11 11 11 D0 
       00:0B03: 00 04 
  3191 00:0B05: 11 AA 11 11  	db	$11,$AA,$11,$11,$12,$DD,$0,$1,$83,$DE
       00:0B09: 12 DD 00 01 
       00:0B0D: 83 DE 
  3192 00:0B0F: FF FD 12 AA  	db	$FF,$FD,$12,$AA,$55,$55
       00:0B13: 55 55 
  3193 00:0B15:              	ends
  3194                        	data
  3195                        L166:
  3196 00:0B15: 11 AA 11 11  	db	$11,$AA,$11,$11,$11,$B0,$0,$0,$84,$B0
       00:0B19: 11 B0 00 00 
       00:0B1D: 84 B0 
  3197 00:0B1F: 00 01 11 AA  	db	$0,$1,$11,$AA,$11,$11,$11,$B0,$10,$0
  Tue Jun 17 2025  1:16                                                                                                    Page 65


       00:0B23: 11 11 11 B0 
       00:0B27: 10 00 
  3198 00:0B29: 84 B0 00 01  	db	$84,$B0,$0,$1,$11,$AA,$22,$22,$12,$AA
       00:0B2D: 11 AA 22 22 
       00:0B31: 12 AA 
  3199 00:0B33: 33 33        	db	$33,$33
  3200 00:0B35:              	ends
  3201                        	data
  3202                        L168:
  3203 00:0B35: 11 AA 11 11  	db	$11,$AA,$11,$11,$11,$B0,$20,$0,$85,$B0
       00:0B39: 11 B0 20 00 
       00:0B3D: 85 B0 
  3204 00:0B3F: 00 01 11 AA  	db	$0,$1,$11,$AA,$11,$11,$11,$B0,$0,$0
       00:0B43: 11 11 11 B0 
       00:0B47: 00 00 
  3205 00:0B49: 85 B0 00 01  	db	$85,$B0,$0,$1,$11,$AA,$22,$22,$11,$D0
       00:0B4D: 11 AA 22 22 
       00:0B51: 11 D0 
  3206 00:0B53: 00 04 11 AA  	db	$0,$4,$11,$AA,$11,$11,$12,$DD,$0,$1
       00:0B57: 11 11 12 DD 
       00:0B5B: 00 01 
  3207 00:0B5D: 85 D0 FF FD  	db	$85,$D0,$FF,$FD,$12,$AA,$66,$66
       00:0B61: 12 AA 66 66 
  3208 00:0B65:              	ends
  3209                        	data
  3210                        L170:
  3211 00:0B65: 11 AA 11 11  	db	$11,$AA,$11,$11,$11,$B0,$20,$0,$86,$B0
       00:0B69: 11 B0 20 00 
       00:0B6D: 86 B0 
  3212 00:0B6F: 00 01 11 AA  	db	$0,$1,$11,$AA,$11,$11,$11,$B0,$20,$0
       00:0B73: 11 11 11 B0 
       00:0B77: 20 00 
  3213 00:0B79: 86 B0 00 01  	db	$86,$B0,$0,$1,$11,$AA,$22,$22,$11,$D0
       00:0B7D: 11 AA 22 22 
       00:0B81: 11 D0 
  3214 00:0B83: 00 04 11 AA  	db	$0,$4,$11,$AA,$11,$11,$12,$DD,$0,$1
       00:0B87: 11 11 12 DD 
       00:0B8B: 00 01 
  3215 00:0B8D: 86 D0 FF FD  	db	$86,$D0,$FF,$FD,$12,$AA,$55,$55
       00:0B91: 12 AA 55 55 
  3216 00:0B95:              	ends
  3217                        	data
  3218                        L172:
  3219 00:0B95: 40 00 00 00  	db	$40,$0,$0,$0
  3220 00:0B99:              	ends
  3221                        	data
  3222                        L48:
  3223 00:0B99: 25 64 20 3A  	db	$25,$64,$20,$3A,$20,$25,$73,$0A,$00,$25,$64,$20,$3A,$20,$25
       00:0B9D: 20 25 73 0A 
       00:0BA1: 00 25 64 20 
       00:0BA5: 3A 20 25 
  3224 00:0BA8: 73 0A 00 25  	db	$73,$0A,$00,$25,$64,$20,$3A,$20,$25,$73,$0A,$00,$25,$64,$20
       00:0BAC: 64 20 3A 20 
       00:0BB0: 25 73 0A 00 
       00:0BB4: 25 64 20 
  3225 00:0BB7: 3A 20 25 73  	db	$3A,$20,$25,$73,$0A,$00,$25,$64,$20,$3A,$20,$25,$73,$0A,$00
       00:0BBB: 0A 00 25 64 
       00:0BBF: 20 3A 20 25 
  Tue Jun 17 2025  1:16                                                                                                    Page 66


       00:0BC3: 73 0A 00 
  3226 00:0BC6: 25 64 20 3A  	db	$25,$64,$20,$3A,$20,$25,$73,$0A,$00,$25,$64,$20,$3A,$20,$25
       00:0BCA: 20 25 73 0A 
       00:0BCE: 00 25 64 20 
       00:0BD2: 3A 20 25 
  3227 00:0BD5: 73 0A 00 25  	db	$73,$0A,$00,$25,$64,$20,$3A,$20,$25,$73,$0A,$00,$25,$64,$20
       00:0BD9: 64 20 3A 20 
       00:0BDD: 25 73 0A 00 
       00:0BE1: 25 64 20 
  3228 00:0BE4: 3A 20 25 73  	db	$3A,$20,$25,$73,$0A,$00,$25,$64,$20,$3A,$20,$25,$73,$0A,$00
       00:0BE8: 0A 00 25 64 
       00:0BEC: 20 3A 20 25 
       00:0BF0: 73 0A 00 
  3229 00:0BF3: 25 64 20 3A  	db	$25,$64,$20,$3A,$20,$25,$73,$0A,$00,$25,$64,$20,$3A,$20,$25
       00:0BF7: 20 25 73 0A 
       00:0BFB: 00 25 64 20 
       00:0BFF: 3A 20 25 
  3230 00:0C02: 73 0A 00 25  	db	$73,$0A,$00,$25,$64,$20,$3A,$20,$25,$73,$0A,$00,$25,$64,$20
       00:0C06: 64 20 3A 20 
       00:0C0A: 25 73 0A 00 
       00:0C0E: 25 64 20 
  3231 00:0C11: 3A 20 25 73  	db	$3A,$20,$25,$73,$0A,$00,$25,$64,$20,$3A,$20,$25,$73,$0A,$00
       00:0C15: 0A 00 25 64 
       00:0C19: 20 3A 20 25 
       00:0C1D: 73 0A 00 
  3232 00:0C20: 25 64 20 3A  	db	$25,$64,$20,$3A,$20,$25,$73,$0A,$00,$25,$64,$20,$3A,$20,$25
       00:0C24: 20 25 73 0A 
       00:0C28: 00 25 64 20 
       00:0C2C: 3A 20 25 
  3233 00:0C2F: 73 0A 00 25  	db	$73,$0A,$00,$25,$64,$20,$3A,$20,$25,$73,$0A,$00,$25,$64,$20
       00:0C33: 64 20 3A 20 
       00:0C37: 25 73 0A 00 
       00:0C3B: 25 64 20 
  3234 00:0C3E: 3A 20 25 73  	db	$3A,$20,$25,$73,$0A,$00,$25,$64,$20,$3A,$20,$25,$73,$0A,$00
       00:0C42: 0A 00 25 64 
       00:0C46: 20 3A 20 25 
       00:0C4A: 73 0A 00 
  3235 00:0C4D: 25 64 20 3A  	db	$25,$64,$20,$3A,$20,$25,$73,$0A,$00,$25,$64,$20,$3A,$20,$25
       00:0C51: 20 25 73 0A 
       00:0C55: 00 25 64 20 
       00:0C59: 3A 20 25 
  3236 00:0C5C: 73 0A 00 25  	db	$73,$0A,$00,$25,$64,$20,$3A,$20,$25,$73,$0A,$00,$25,$64,$20
       00:0C60: 64 20 3A 20 
       00:0C64: 25 73 0A 00 
       00:0C68: 25 64 20 
  3237 00:0C6B: 3A 20 25 73  	db	$3A,$20,$25,$73,$0A,$00,$25,$64,$20,$3A,$20,$25,$73,$0A,$00
       00:0C6F: 0A 00 25 64 
       00:0C73: 20 3A 20 25 
       00:0C77: 73 0A 00 
  3238 00:0C7A: 25 64 20 3A  	db	$25,$64,$20,$3A,$20,$25,$73,$0A,$00,$25,$64,$20,$3A,$20,$25
       00:0C7E: 20 25 73 0A 
       00:0C82: 00 25 64 20 
       00:0C86: 3A 20 25 
  3239 00:0C89: 73 0A 00 25  	db	$73,$0A,$00,$25,$64,$20,$3A,$20,$25,$73,$0A,$00,$25,$64,$20
       00:0C8D: 64 20 3A 20 
       00:0C91: 25 73 0A 00 
       00:0C95: 25 64 20 
  3240 00:0C98: 3A 20 25 73  	db	$3A,$20,$25,$73,$0A,$00,$25,$64,$20,$3A,$20,$25,$73,$0A,$00
  Tue Jun 17 2025  1:16                                                                                                    Page 67


       00:0C9C: 0A 00 25 64 
       00:0CA0: 20 3A 20 25 
       00:0CA4: 73 0A 00 
  3241 00:0CA7: 25 64 20 3A  	db	$25,$64,$20,$3A,$20,$25,$73,$0A,$00,$25,$64,$20,$3A,$20,$25
       00:0CAB: 20 25 73 0A 
       00:0CAF: 00 25 64 20 
       00:0CB3: 3A 20 25 
  3242 00:0CB6: 73 0A 00 25  	db	$73,$0A,$00,$25,$64,$20,$3A,$20,$25,$73,$0A,$00,$25,$64,$20
       00:0CBA: 64 20 3A 20 
       00:0CBE: 25 73 0A 00 
       00:0CC2: 25 64 20 
  3243 00:0CC5: 3A 20 25 73  	db	$3A,$20,$25,$73,$0A,$00,$25,$64,$20,$3A,$20,$25,$73,$0A,$00
       00:0CC9: 0A 00 25 64 
       00:0CCD: 20 3A 20 25 
       00:0CD1: 73 0A 00 
  3244 00:0CD4: 25 64 20 3A  	db	$25,$64,$20,$3A,$20,$25,$73,$0A,$00,$25,$64,$20,$3A,$20,$25
       00:0CD8: 20 25 73 0A 
       00:0CDC: 00 25 64 20 
       00:0CE0: 3A 20 25 
  3245 00:0CE3: 73 0A 00 25  	db	$73,$0A,$00,$25,$64,$20,$3A,$20,$25,$73,$0A,$00,$25,$64,$20
       00:0CE7: 64 20 3A 20 
       00:0CEB: 25 73 0A 00 
       00:0CEF: 25 64 20 
  3246 00:0CF2: 3A 20 25 73  	db	$3A,$20,$25,$73,$0A,$00,$25,$64,$20,$3A,$20,$25,$73,$0A,$00
       00:0CF6: 0A 00 25 64 
       00:0CFA: 20 3A 20 25 
       00:0CFE: 73 0A 00 
  3247 00:0D01: 25 64 20 3A  	db	$25,$64,$20,$3A,$20,$25,$73,$0A,$00,$25,$64,$20,$3A,$20,$25
       00:0D05: 20 25 73 0A 
       00:0D09: 00 25 64 20 
       00:0D0D: 3A 20 25 
  3248 00:0D10: 73 0A 00 25  	db	$73,$0A,$00,$25,$64,$20,$3A,$20,$25,$73,$0A,$00,$25,$64,$20
       00:0D14: 64 20 3A 20 
       00:0D18: 25 73 0A 00 
       00:0D1C: 25 64 20 
  3249 00:0D1F: 3A 20 25 73  	db	$3A,$20,$25,$73,$0A,$00,$25,$64,$20,$3A,$20,$25,$73,$0A,$00
       00:0D23: 0A 00 25 64 
       00:0D27: 20 3A 20 25 
       00:0D2B: 73 0A 00 
  3250 00:0D2E: 25 64 20 3A  	db	$25,$64,$20,$3A,$20,$25,$73,$0A,$00,$25,$64,$20,$3A,$20,$25
       00:0D32: 20 25 73 0A 
       00:0D36: 00 25 64 20 
       00:0D3A: 3A 20 25 
  3251 00:0D3D: 73 0A 00 25  	db	$73,$0A,$00,$25,$64,$20,$3A,$20,$25,$73,$0A,$00,$25,$64,$20
       00:0D41: 64 20 3A 20 
       00:0D45: 25 73 0A 00 
       00:0D49: 25 64 20 
  3252 00:0D4C: 3A 20 25 73  	db	$3A,$20,$25,$73,$0A,$00,$25,$64,$20,$3A,$20,$25,$73,$0A,$00
       00:0D50: 0A 00 25 64 
       00:0D54: 20 3A 20 25 
       00:0D58: 73 0A 00 
  3253 00:0D5B: 25 64 20 3A  	db	$25,$64,$20,$3A,$20,$25,$73,$0A,$00,$25,$64,$20,$3A,$20,$25
       00:0D5F: 20 25 73 0A 
       00:0D63: 00 25 64 20 
       00:0D67: 3A 20 25 
  3254 00:0D6A: 73 0A 00 25  	db	$73,$0A,$00,$25,$64,$20,$3A,$20,$25,$73,$0A,$00,$25,$64,$20
       00:0D6E: 64 20 3A 20 
       00:0D72: 25 73 0A 00 
  Tue Jun 17 2025  1:16                                                                                                    Page 68


       00:0D76: 25 64 20 
  3255 00:0D79: 3A 20 25 73  	db	$3A,$20,$25,$73,$0A,$00,$25,$64,$20,$3A,$20,$25,$73,$0A,$00
       00:0D7D: 0A 00 25 64 
       00:0D81: 20 3A 20 25 
       00:0D85: 73 0A 00 
  3256 00:0D88: 25 64 20 3A  	db	$25,$64,$20,$3A,$20,$25,$73,$0A,$00,$25,$64,$20,$3A,$20,$25
       00:0D8C: 20 25 73 0A 
       00:0D90: 00 25 64 20 
       00:0D94: 3A 20 25 
  3257 00:0D97: 73 0A 00 25  	db	$73,$0A,$00,$25,$64,$20,$3A,$20,$25,$73,$0A,$00,$25,$64,$20
       00:0D9B: 64 20 3A 20 
       00:0D9F: 25 73 0A 00 
       00:0DA3: 25 64 20 
  3258 00:0DA6: 3A 20 25 73  	db	$3A,$20,$25,$73,$0A,$00,$25,$64,$20,$3A,$20,$25,$73,$0A,$00
       00:0DAA: 0A 00 25 64 
       00:0DAE: 20 3A 20 25 
       00:0DB2: 73 0A 00 
  3259 00:0DB5: 25 64 20 3A  	db	$25,$64,$20,$3A,$20,$25,$73,$0A,$00,$25,$64,$20,$3A,$20,$25
       00:0DB9: 20 25 73 0A 
       00:0DBD: 00 25 64 20 
       00:0DC1: 3A 20 25 
  3260 00:0DC4: 73 0A 00     	db	$73,$0A,$00
  3261 00:0DC7:              	ends
  3262                        ;#include "monitor.h"
  3263                        	code
  3264                        	xdef	__cmd_version
  3265                        	func
  3266                        __cmd_version:
  3267                        	longa	on
  3268                        	longi	on
  3269 00:1266: 3B           	tsc
  3270 00:1267: 38           	sec
  3271 00:1268: E9 00 00     	sbc	#L176
  3272 00:126B: 1B           	tcs
  3273 00:126C: 0B           	phd
  3274 00:126D: 5B           	tcd
  3275             00000003   core_0	set	3
  3276 00:126E: F4 xx xx     	pea	#<L175
  3277 00:1271: 20 xx xx     	jsr	__println
  3278 00:1274: F4 xx xx     	pea	#<L175+20
  3279 00:1277: 20 xx xx     	jsr	__println
  3280 00:127A: F4 xx xx     	pea	#<L175+42
  3281 00:127D: 20 xx xx     	jsr	__println
  3282 00:1280: A5 01        	lda	<L176+1
  3283 00:1282: 85 03        	sta	<L176+1+2
  3284 00:1284: 2B           	pld
  3285 00:1285: 3B           	tsc
  3286 00:1286: 18           	clc
  3287 00:1287: 69 02 00     	adc	#L176+2
  3288 00:128A: 1B           	tcs
  3289 00:128B: 60           	rts
  3290             00000000   L176	equ	0
  3291             00000001   L177	equ	1
  3292                        	ends
  3293                        	efunc
  3294                        	data
  3295                        L175:
  3296 00:0DC7: 20 20 56 4D  	db	$20,$20,$56,$4D,$45,$58,$20,$30,$2E,$33,$30,$2D,$32,$33,$30
  Tue Jun 17 2025  1:16                                                                                                    Page 69


       00:0DCB: 45 58 20 30 
       00:0DCF: 2E 33 30 2D 
       00:0DD3: 32 33 30 
  3297 00:0DD6: 34 30 38 61  	db	$34,$30,$38,$61,$00,$20,$20,$28,$63,$29,$32,$30,$32,$32,$20
       00:0DDA: 00 20 20 28 
       00:0DDE: 63 29 32 30 
       00:0DE2: 32 32 20 
  3298 00:0DE5: 6D 69 78 77  	db	$6D,$69,$78,$77,$6F,$72,$78,$2E,$6E,$65,$74,$00,$00
       00:0DE9: 6F 72 78 2E 
       00:0DED: 6E 65 74 00 
       00:0DF1: 00 
  3299 00:0DF2:              	ends
  3300                        	code
  3301                        	xdef	__cmd_help
  3302                        	func
  3303                        __cmd_help:
  3304                        	longa	on
  3305                        	longi	on
  3306 00:128C: 3B           	tsc
  3307 00:128D: 38           	sec
  3308 00:128E: E9 00 00     	sbc	#L180
  3309 00:1291: 1B           	tcs
  3310 00:1292: 0B           	phd
  3311 00:1293: 5B           	tcd
  3312             00000003   core_0	set	3
  3313 00:1294: F4 xx xx     	pea	#<L179
  3314 00:1297: 20 xx xx     	jsr	__println
  3315 00:129A: F4 xx xx     	pea	#<L179+11
  3316 00:129D: 20 xx xx     	jsr	__println
  3317 00:12A0: F4 xx xx     	pea	#<L179+22
  3318 00:12A3: 20 xx xx     	jsr	__println
  3319 00:12A6: F4 xx xx     	pea	#<L179+36
  3320 00:12A9: 20 xx xx     	jsr	__println
  3321 00:12AC: F4 xx xx     	pea	#<L179+48
  3322 00:12AF: 20 xx xx     	jsr	__println
  3323 00:12B2: F4 xx xx     	pea	#<L179+57
  3324 00:12B5: 20 xx xx     	jsr	__println
  3325 00:12B8: F4 xx xx     	pea	#<L179+73
  3326 00:12BB: 20 xx xx     	jsr	__println
  3327 00:12BE: F4 xx xx     	pea	#<L179+91
  3328 00:12C1: 20 xx xx     	jsr	__println
  3329 00:12C4: F4 xx xx     	pea	#<L179+119
  3330 00:12C7: 20 xx xx     	jsr	__println
  3331 00:12CA: F4 xx xx     	pea	#<L179+139
  3332 00:12CD: 20 xx xx     	jsr	__println
  3333 00:12D0: F4 xx xx     	pea	#<L179+168
  3334 00:12D3: 20 xx xx     	jsr	__println
  3335 00:12D6: F4 xx xx     	pea	#<L179+187
  3336 00:12D9: 20 xx xx     	jsr	__println
  3337 00:12DC: F4 xx xx     	pea	#<L179+212
  3338 00:12DF: 20 xx xx     	jsr	__println
  3339 00:12E2: F4 xx xx     	pea	#<L179+228
  3340 00:12E5: 20 xx xx     	jsr	__println
  3341 00:12E8: F4 xx xx     	pea	#<L179+250
  3342 00:12EB: 20 xx xx     	jsr	__println
  3343 00:12EE: A5 01        	lda	<L180+1
  3344 00:12F0: 85 03        	sta	<L180+1+2
  3345 00:12F2: 2B           	pld
  Tue Jun 17 2025  1:16                                                                                                    Page 70


  3346 00:12F3: 3B           	tsc
  3347 00:12F4: 18           	clc
  3348 00:12F5: 69 02 00     	adc	#L180+2
  3349 00:12F8: 1B           	tcs
  3350 00:12F9: 60           	rts
  3351             00000000   L180	equ	0
  3352             00000001   L181	equ	1
  3353                        	ends
  3354                        	efunc
  3355                        	data
  3356                        L179:
  3357 00:0DF2: 20 20 3F 20  	db	$20,$20,$3F,$20,$2D,$20,$68,$65,$6C,$70,$00,$20,$20,$71,$20
       00:0DF6: 2D 20 68 65 
       00:0DFA: 6C 70 00 20 
       00:0DFE: 20 71 20 
  3358 00:0E01: 2D 20 71 75  	db	$2D,$20,$71,$75,$69,$74,$00,$20,$20,$76,$20,$2D,$20,$76,$65
       00:0E05: 69 74 00 20 
       00:0E09: 20 76 20 2D 
       00:0E0D: 20 76 65 
  3359 00:0E10: 72 73 69 6F  	db	$72,$73,$69,$6F,$6E,$00,$20,$20,$74,$20,$2D,$20,$74,$65,$73
       00:0E14: 6E 00 20 20 
       00:0E18: 74 20 2D 20 
       00:0E1C: 74 65 73 
  3360 00:0E1F: 74 73 00 20  	db	$74,$73,$00,$20,$20,$67,$20,$2D,$20,$67,$6F,$00,$20,$20,$72
       00:0E23: 20 67 20 2D 
       00:0E27: 20 67 6F 00 
       00:0E2B: 20 20 72 
  3361 00:0E2E: 20 2D 20 72  	db	$20,$2D,$20,$72,$65,$67,$69,$73,$74,$65,$72,$73,$00,$20,$20
       00:0E32: 65 67 69 73 
       00:0E36: 74 65 72 73 
       00:0E3A: 00 20 20 
  3362 00:0E3D: 6D 20 2D 20  	db	$6D,$20,$2D,$20,$72,$65,$61,$64,$20,$6D,$65,$6D,$6F,$72,$79
       00:0E41: 72 65 61 64 
       00:0E45: 20 6D 65 6D 
       00:0E49: 6F 72 79 
  3363 00:0E4C: 00 20 20 2E  	db	$00,$20,$20,$2E,$4D,$20,$2D,$20,$72,$65,$61,$64,$20,$6D,$65
       00:0E50: 4D 20 2D 20 
       00:0E54: 72 65 61 64 
       00:0E58: 20 6D 65 
  3364 00:0E5B: 6D 6F 72 79  	db	$6D,$6F,$72,$79,$20,$77,$69,$74,$68,$20,$43,$52,$43,$00,$20
       00:0E5F: 20 77 69 74 
       00:0E63: 68 20 43 52 
       00:0E67: 43 00 20 
  3365 00:0E6A: 20 2E 77 20  	db	$20,$2E,$77,$20,$2D,$20,$77,$72,$69,$74,$65,$20,$6D,$65,$6D
       00:0E6E: 2D 20 77 72 
       00:0E72: 69 74 65 20 
       00:0E76: 6D 65 6D 
  3366 00:0E79: 6F 72 79 00  	db	$6F,$72,$79,$00,$20,$20,$2E,$57,$20,$2D,$20,$77,$72,$69,$74
       00:0E7D: 20 20 2E 57 
       00:0E81: 20 2D 20 77 
       00:0E85: 72 69 74 
  3367 00:0E88: 65 20 6D 65  	db	$65,$20,$6D,$65,$6D,$6F,$72,$79,$20,$77,$69,$74,$68,$20,$43
       00:0E8C: 6D 6F 72 79 
       00:0E90: 20 77 69 74 
       00:0E94: 68 20 43 
  3368 00:0E97: 52 43 00 20  	db	$52,$43,$00,$20,$20,$2E,$64,$20,$2D,$20,$64,$69,$73,$61,$73
       00:0E9B: 20 2E 64 20 
       00:0E9F: 2D 20 64 69 
  Tue Jun 17 2025  1:16                                                                                                    Page 71


       00:0EA3: 73 61 73 
  3369 00:0EA6: 73 65 6D 62  	db	$73,$65,$6D,$62,$6C,$79,$00,$20,$20,$2E,$44,$20,$2D,$20,$41
       00:0EAA: 6C 79 00 20 
       00:0EAE: 20 2E 44 20 
       00:0EB2: 2D 20 41 
  3370 00:0EB5: 53 4C 49 58  	db	$53,$4C,$49,$58,$20,$64,$69,$73,$61,$73,$73,$65,$6D,$62,$6C
       00:0EB9: 20 64 69 73 
       00:0EBD: 61 73 73 65 
       00:0EC1: 6D 62 6C 
  3371 00:0EC4: 79 00 20 20  	db	$79,$00,$20,$20,$2E,$61,$20,$2D,$20,$61,$73,$73,$65,$6D,$62
       00:0EC8: 2E 61 20 2D 
       00:0ECC: 20 61 73 73 
       00:0ED0: 65 6D 62 
  3372 00:0ED3: 6C 79 00 20  	db	$6C,$79,$00,$20,$20,$2E,$41,$20,$2D,$20,$41,$53,$4C,$49,$58
       00:0ED7: 20 2E 41 20 
       00:0EDB: 2D 20 41 53 
       00:0EDF: 4C 49 58 
  3373 00:0EE2: 20 61 73 73  	db	$20,$61,$73,$73,$65,$6D,$62,$6C,$79,$00,$00
       00:0EE6: 65 6D 62 6C 
       00:0EEA: 79 00 00 
  3374 00:0EED:              	ends
  3375                        	code
  3376                        	xdef	__cmd_registers
  3377                        	func
  3378                        __cmd_registers:
  3379                        	longa	on
  3380                        	longi	on
  3381 00:12FA: 3B           	tsc
  3382 00:12FB: 38           	sec
  3383 00:12FC: E9 00 00     	sbc	#L184
  3384 00:12FF: 1B           	tcs
  3385 00:1300: 0B           	phd
  3386 00:1301: 5B           	tcd
  3387             00000003   core_0	set	3
  3388 00:1302: F4 xx xx     	pea	#<L183
  3389 00:1305: 20 xx xx     	jsr	__println
  3390 00:1308: F4 xx xx     	pea	#<L183+34
  3391 00:130B: 20 xx xx     	jsr	__print
  3392 00:130E: F4 08 00     	pea	#<$8
  3393 00:1311: A0 02 00     	ldy	#$2
  3394 00:1314: B1 03        	lda	(<L184+core_0),Y
  3395 00:1316: 48           	pha
  3396 00:1317: B2 03        	lda	(<L184+core_0)
  3397 00:1319: 48           	pha
  3398 00:131A: 20 xx xx     	jsr	__itoh
  3399 00:131D: 48           	pha
  3400 00:131E: 20 xx xx     	jsr	__print
  3401 00:1321: F4 xx xx     	pea	#<L183+37
  3402 00:1324: 20 xx xx     	jsr	__print
  3403 00:1327: F4 08 00     	pea	#<$8
  3404 00:132A: A0 06 00     	ldy	#$6
  3405 00:132D: B1 03        	lda	(<L184+core_0),Y
  3406 00:132F: 48           	pha
  3407 00:1330: 88           	dey
  3408 00:1331: 88           	dey
  3409 00:1332: B1 03        	lda	(<L184+core_0),Y
  3410 00:1334: 48           	pha
  3411 00:1335: 20 xx xx     	jsr	__itoh
  Tue Jun 17 2025  1:16                                                                                                    Page 72


  3412 00:1338: 48           	pha
  3413 00:1339: 20 xx xx     	jsr	__print
  3414 00:133C: F4 xx xx     	pea	#<L183+39
  3415 00:133F: 20 xx xx     	jsr	__print
  3416 00:1342: F4 08 00     	pea	#<$8
  3417 00:1345: A0 0A 00     	ldy	#$a
  3418 00:1348: B1 03        	lda	(<L184+core_0),Y
  3419 00:134A: 48           	pha
  3420 00:134B: 88           	dey
  3421 00:134C: 88           	dey
  3422 00:134D: B1 03        	lda	(<L184+core_0),Y
  3423 00:134F: 48           	pha
  3424 00:1350: 20 xx xx     	jsr	__itoh
  3425 00:1353: 48           	pha
  3426 00:1354: 20 xx xx     	jsr	__print
  3427 00:1357: F4 xx xx     	pea	#<L183+41
  3428 00:135A: 20 xx xx     	jsr	__print
  3429 00:135D: F4 08 00     	pea	#<$8
  3430 00:1360: A0 0E 00     	ldy	#$e
  3431 00:1363: B1 03        	lda	(<L184+core_0),Y
  3432 00:1365: 48           	pha
  3433 00:1366: 88           	dey
  3434 00:1367: 88           	dey
  3435 00:1368: B1 03        	lda	(<L184+core_0),Y
  3436 00:136A: 48           	pha
  3437 00:136B: 20 xx xx     	jsr	__itoh
  3438 00:136E: 48           	pha
  3439 00:136F: 20 xx xx     	jsr	__print
  3440 00:1372: F4 xx xx     	pea	#<L183+43
  3441 00:1375: 20 xx xx     	jsr	__println
  3442 00:1378: F4 xx xx     	pea	#<L183+45
  3443 00:137B: 20 xx xx     	jsr	__println
  3444 00:137E: F4 xx xx     	pea	#<L183+79
  3445 00:1381: 20 xx xx     	jsr	__print
  3446 00:1384: F4 08 00     	pea	#<$8
  3447 00:1387: A0 12 00     	ldy	#$12
  3448 00:138A: B1 03        	lda	(<L184+core_0),Y
  3449 00:138C: 48           	pha
  3450 00:138D: 88           	dey
  3451 00:138E: 88           	dey
  3452 00:138F: B1 03        	lda	(<L184+core_0),Y
  3453 00:1391: 48           	pha
  3454 00:1392: 20 xx xx     	jsr	__itoh
  3455 00:1395: 48           	pha
  3456 00:1396: 20 xx xx     	jsr	__print
  3457 00:1399: F4 xx xx     	pea	#<L183+82
  3458 00:139C: 20 xx xx     	jsr	__print
  3459 00:139F: F4 08 00     	pea	#<$8
  3460 00:13A2: A0 16 00     	ldy	#$16
  3461 00:13A5: B1 03        	lda	(<L184+core_0),Y
  3462 00:13A7: 48           	pha
  3463 00:13A8: 88           	dey
  3464 00:13A9: 88           	dey
  3465 00:13AA: B1 03        	lda	(<L184+core_0),Y
  3466 00:13AC: 48           	pha
  3467 00:13AD: 20 xx xx     	jsr	__itoh
  3468 00:13B0: 48           	pha
  3469 00:13B1: 20 xx xx     	jsr	__print
  Tue Jun 17 2025  1:16                                                                                                    Page 73


  3470 00:13B4: F4 xx xx     	pea	#<L183+84
  3471 00:13B7: 20 xx xx     	jsr	__print
  3472 00:13BA: F4 08 00     	pea	#<$8
  3473 00:13BD: A0 1A 00     	ldy	#$1a
  3474 00:13C0: B1 03        	lda	(<L184+core_0),Y
  3475 00:13C2: 48           	pha
  3476 00:13C3: 88           	dey
  3477 00:13C4: 88           	dey
  3478 00:13C5: B1 03        	lda	(<L184+core_0),Y
  3479 00:13C7: 48           	pha
  3480 00:13C8: 20 xx xx     	jsr	__itoh
  3481 00:13CB: 48           	pha
  3482 00:13CC: 20 xx xx     	jsr	__print
  3483 00:13CF: F4 xx xx     	pea	#<L183+86
  3484 00:13D2: 20 xx xx     	jsr	__print
  3485 00:13D5: F4 08 00     	pea	#<$8
  3486 00:13D8: A0 1E 00     	ldy	#$1e
  3487 00:13DB: B1 03        	lda	(<L184+core_0),Y
  3488 00:13DD: 48           	pha
  3489 00:13DE: 88           	dey
  3490 00:13DF: 88           	dey
  3491 00:13E0: B1 03        	lda	(<L184+core_0),Y
  3492 00:13E2: 48           	pha
  3493 00:13E3: 20 xx xx     	jsr	__itoh
  3494 00:13E6: 48           	pha
  3495 00:13E7: 20 xx xx     	jsr	__print
  3496 00:13EA: F4 xx xx     	pea	#<L183+88
  3497 00:13ED: 20 xx xx     	jsr	__println
  3498 00:13F0: F4 xx xx     	pea	#<L183+90
  3499 00:13F3: 20 xx xx     	jsr	__println
  3500 00:13F6: F4 xx xx     	pea	#<L183+124
  3501 00:13F9: 20 xx xx     	jsr	__print
  3502 00:13FC: F4 08 00     	pea	#<$8
  3503 00:13FF: A0 22 00     	ldy	#$22
  3504 00:1402: B1 03        	lda	(<L184+core_0),Y
  3505 00:1404: 48           	pha
  3506 00:1405: 88           	dey
  3507 00:1406: 88           	dey
  3508 00:1407: B1 03        	lda	(<L184+core_0),Y
  3509 00:1409: 48           	pha
  3510 00:140A: 20 xx xx     	jsr	__itoh
  3511 00:140D: 48           	pha
  3512 00:140E: 20 xx xx     	jsr	__print
  3513 00:1411: F4 xx xx     	pea	#<L183+127
  3514 00:1414: 20 xx xx     	jsr	__print
  3515 00:1417: F4 08 00     	pea	#<$8
  3516 00:141A: A0 26 00     	ldy	#$26
  3517 00:141D: B1 03        	lda	(<L184+core_0),Y
  3518 00:141F: 48           	pha
  3519 00:1420: 88           	dey
  3520 00:1421: 88           	dey
  3521 00:1422: B1 03        	lda	(<L184+core_0),Y
  3522 00:1424: 48           	pha
  3523 00:1425: 20 xx xx     	jsr	__itoh
  3524 00:1428: 48           	pha
  3525 00:1429: 20 xx xx     	jsr	__print
  3526 00:142C: F4 xx xx     	pea	#<L183+129
  3527 00:142F: 20 xx xx     	jsr	__print
  Tue Jun 17 2025  1:16                                                                                                    Page 74


  3528 00:1432: F4 08 00     	pea	#<$8
  3529 00:1435: A0 2A 00     	ldy	#$2a
  3530 00:1438: B1 03        	lda	(<L184+core_0),Y
  3531 00:143A: 48           	pha
  3532 00:143B: 88           	dey
  3533 00:143C: 88           	dey
  3534 00:143D: B1 03        	lda	(<L184+core_0),Y
  3535 00:143F: 48           	pha
  3536 00:1440: 20 xx xx     	jsr	__itoh
  3537 00:1443: 48           	pha
  3538 00:1444: 20 xx xx     	jsr	__print
  3539 00:1447: F4 xx xx     	pea	#<L183+131
  3540 00:144A: 20 xx xx     	jsr	__print
  3541 00:144D: F4 08 00     	pea	#<$8
  3542 00:1450: A0 2E 00     	ldy	#$2e
  3543 00:1453: B1 03        	lda	(<L184+core_0),Y
  3544 00:1455: 48           	pha
  3545 00:1456: 88           	dey
  3546 00:1457: 88           	dey
  3547 00:1458: B1 03        	lda	(<L184+core_0),Y
  3548 00:145A: 48           	pha
  3549 00:145B: 20 xx xx     	jsr	__itoh
  3550 00:145E: 48           	pha
  3551 00:145F: 20 xx xx     	jsr	__print
  3552 00:1462: F4 xx xx     	pea	#<L183+133
  3553 00:1465: 20 xx xx     	jsr	__println
  3554 00:1468: F4 xx xx     	pea	#<L183+135
  3555 00:146B: 20 xx xx     	jsr	__println
  3556 00:146E: F4 xx xx     	pea	#<L183+169
  3557 00:1471: 20 xx xx     	jsr	__print
  3558 00:1474: F4 08 00     	pea	#<$8
  3559 00:1477: A0 32 00     	ldy	#$32
  3560 00:147A: B1 03        	lda	(<L184+core_0),Y
  3561 00:147C: 48           	pha
  3562 00:147D: 88           	dey
  3563 00:147E: 88           	dey
  3564 00:147F: B1 03        	lda	(<L184+core_0),Y
  3565 00:1481: 48           	pha
  3566 00:1482: 20 xx xx     	jsr	__itoh
  3567 00:1485: 48           	pha
  3568 00:1486: 20 xx xx     	jsr	__print
  3569 00:1489: F4 xx xx     	pea	#<L183+172
  3570 00:148C: 20 xx xx     	jsr	__print
  3571 00:148F: F4 08 00     	pea	#<$8
  3572 00:1492: A0 36 00     	ldy	#$36
  3573 00:1495: B1 03        	lda	(<L184+core_0),Y
  3574 00:1497: 48           	pha
  3575 00:1498: 88           	dey
  3576 00:1499: 88           	dey
  3577 00:149A: B1 03        	lda	(<L184+core_0),Y
  3578 00:149C: 48           	pha
  3579 00:149D: 20 xx xx     	jsr	__itoh
  3580 00:14A0: 48           	pha
  3581 00:14A1: 20 xx xx     	jsr	__print
  3582 00:14A4: F4 xx xx     	pea	#<L183+174
  3583 00:14A7: 20 xx xx     	jsr	__print
  3584 00:14AA: F4 08 00     	pea	#<$8
  3585 00:14AD: A0 3A 00     	ldy	#$3a
  Tue Jun 17 2025  1:16                                                                                                    Page 75


  3586 00:14B0: B1 03        	lda	(<L184+core_0),Y
  3587 00:14B2: 48           	pha
  3588 00:14B3: 88           	dey
  3589 00:14B4: 88           	dey
  3590 00:14B5: B1 03        	lda	(<L184+core_0),Y
  3591 00:14B7: 48           	pha
  3592 00:14B8: 20 xx xx     	jsr	__itoh
  3593 00:14BB: 48           	pha
  3594 00:14BC: 20 xx xx     	jsr	__print
  3595 00:14BF: F4 xx xx     	pea	#<L183+176
  3596 00:14C2: 20 xx xx     	jsr	__print
  3597 00:14C5: F4 08 00     	pea	#<$8
  3598 00:14C8: A0 3E 00     	ldy	#$3e
  3599 00:14CB: B1 03        	lda	(<L184+core_0),Y
  3600 00:14CD: 48           	pha
  3601 00:14CE: 88           	dey
  3602 00:14CF: 88           	dey
  3603 00:14D0: B1 03        	lda	(<L184+core_0),Y
  3604 00:14D2: 48           	pha
  3605 00:14D3: 20 xx xx     	jsr	__itoh
  3606 00:14D6: 48           	pha
  3607 00:14D7: 20 xx xx     	jsr	__print
  3608 00:14DA: F4 xx xx     	pea	#<L183+178
  3609 00:14DD: 20 xx xx     	jsr	__println
  3610 00:14E0: A5 01        	lda	<L184+1
  3611 00:14E2: 85 03        	sta	<L184+1+2
  3612 00:14E4: 2B           	pld
  3613 00:14E5: 3B           	tsc
  3614 00:14E6: 18           	clc
  3615 00:14E7: 69 02 00     	adc	#L184+2
  3616 00:14EA: 1B           	tcs
  3617 00:14EB: 60           	rts
  3618             00000000   L184	equ	0
  3619             00000001   L185	equ	1
  3620                        	ends
  3621                        	efunc
  3622                        	data
  3623                        L183:
  3624 00:0EED: 20 20 30 2D  	db	$20,$20,$30,$2D,$7A,$65,$72,$6F,$20,$20,$20,$31,$2D,$72,$61
       00:0EF1: 7A 65 72 6F 
       00:0EF5: 20 20 20 31 
       00:0EF9: 2D 72 61 
  3625 00:0EFC: 20 20 20 20  	db	$20,$20,$20,$20,$20,$32,$2D,$73,$70,$20,$20,$20,$20,$20,$33
       00:0F00: 20 32 2D 73 
       00:0F04: 70 20 20 20 
       00:0F08: 20 20 33 
  3626 00:0F0B: 2D 67 70 00  	db	$2D,$67,$70,$00,$20,$20,$00,$20,$00,$20,$00,$20,$00,$20,$00
       00:0F0F: 20 20 00 20 
       00:0F13: 00 20 00 20 
       00:0F17: 00 20 00 
  3627 00:0F1A: 20 20 34 2D  	db	$20,$20,$34,$2D,$74,$70,$20,$20,$20,$20,$20,$35,$2D,$74,$30
       00:0F1E: 74 70 20 20 
       00:0F22: 20 20 20 35 
       00:0F26: 2D 74 30 
  3628 00:0F29: 20 20 20 20  	db	$20,$20,$20,$20,$20,$36,$2D,$74,$31,$20,$20,$20,$20,$20,$37
       00:0F2D: 20 36 2D 74 
       00:0F31: 31 20 20 20 
       00:0F35: 20 20 37 
  Tue Jun 17 2025  1:16                                                                                                    Page 76


  3629 00:0F38: 2D 74 32 00  	db	$2D,$74,$32,$00,$20,$20,$00,$20,$00,$20,$00,$20,$00,$20,$00
       00:0F3C: 20 20 00 20 
       00:0F40: 00 20 00 20 
       00:0F44: 00 20 00 
  3630 00:0F47: 20 20 38 2D  	db	$20,$20,$38,$2D,$73,$30,$20,$20,$20,$20,$20,$39,$2D,$73,$31
       00:0F4B: 73 30 20 20 
       00:0F4F: 20 20 20 39 
       00:0F53: 2D 73 31 
  3631 00:0F56: 20 20 20 20  	db	$20,$20,$20,$20,$20,$41,$2D,$61,$30,$20,$20,$20,$20,$20,$42
       00:0F5A: 20 41 2D 61 
       00:0F5E: 30 20 20 20 
       00:0F62: 20 20 42 
  3632 00:0F65: 2D 61 31 00  	db	$2D,$61,$31,$00,$20,$20,$00,$20,$00,$20,$00,$20,$00,$20,$00
       00:0F69: 20 20 00 20 
       00:0F6D: 00 20 00 20 
       00:0F71: 00 20 00 
  3633 00:0F74: 20 20 43 2D  	db	$20,$20,$43,$2D,$61,$32,$20,$20,$20,$20,$20,$44,$2D,$61,$33
       00:0F78: 61 32 20 20 
       00:0F7C: 20 20 20 44 
       00:0F80: 2D 61 33 
  3634 00:0F83: 20 20 20 20  	db	$20,$20,$20,$20,$20,$45,$2D,$61,$34,$20,$20,$20,$20,$20,$46
       00:0F87: 20 45 2D 61 
       00:0F8B: 34 20 20 20 
       00:0F8F: 20 20 46 
  3635 00:0F92: 2D 61 35 00  	db	$2D,$61,$35,$00,$20,$20,$00,$20,$00,$20,$00,$20,$00,$20,$00
       00:0F96: 20 20 00 20 
       00:0F9A: 00 20 00 20 
       00:0F9E: 00 20 00 
  3636 00:0FA1:              	ends
  3637                        	code
  3638                        	xdef	__cmd_memory
  3639                        	func
  3640                        __cmd_memory:
  3641                        	longa	on
  3642                        	longi	on
  3643 00:14EC: 3B           	tsc
  3644 00:14ED: 38           	sec
  3645 00:14EE: E9 0E 00     	sbc	#L188
  3646 00:14F1: 1B           	tcs
  3647 00:14F2: 0B           	phd
  3648 00:14F3: 5B           	tcd
  3649             00000003   core_0	set	3
  3650             00000005   from_0	set	5
  3651             00000007   words_0	set	7
  3652             00000000   i_1	set	0
  3653             00000002   j_1	set	2
  3654             00000004   word_1	set	4
  3655 00:14F4: 64 0D        	stz	<L189+word_1
  3656 00:14F6: 64 09        	stz	<L189+i_1
  3657 00:14F8: 80 50        	bra	L10138
  3658                        L10137:
  3659 00:14FA: F4 xx xx     	pea	#<L187
  3660 00:14FD: 20 xx xx     	jsr	__print
  3661 00:1500: 64 0B        	stz	<L189+j_1
  3662                        L10141:
  3663 00:1502: A5 0D        	lda	<L189+word_1
  3664 00:1504: C5 15        	cmp	<L188+words_0
  3665 00:1506: F0 3A        	beq	L10140
  Tue Jun 17 2025  1:16                                                                                                    Page 77


  3666 00:1508: F4 08 00     	pea	#<$8
  3667 00:150B: A5 09        	lda	<L189+i_1
  3668 00:150D: 0A           	asl	A
  3669 00:150E: 0A           	asl	A
  3670 00:150F: 18           	clc
  3671 00:1510: 65 13        	adc	<L188+from_0
  3672 00:1512: 18           	clc
  3673 00:1513: 65 0B        	adc	<L189+j_1
  3674 00:1515: 18           	clc
  3675 00:1516: 69 44 00     	adc	#$44
  3676 00:1519: A8           	tay
  3677 00:151A: B1 11        	lda	(<L188+core_0),Y
  3678 00:151C: 29 FF 00     	and	#$ff
  3679 00:151F: 85 01        	sta	<R0
  3680 00:1521: 64 03        	stz	<R0+2
  3681 00:1523: D4 03        	pei	<R0+2
  3682 00:1525: D4 01        	pei	<R0
  3683 00:1527: 20 xx xx     	jsr	__itoh
  3684 00:152A: 48           	pha
  3685 00:152B: 20 xx xx     	jsr	__print
  3686 00:152E: F4 xx xx     	pea	#<L187+3
  3687 00:1531: 20 xx xx     	jsr	__print
  3688 00:1534: E6 0D        	inc	<L189+word_1
  3689 00:1536: E6 0B        	inc	<L189+j_1
  3690 00:1538: A5 0B        	lda	<L189+j_1
  3691 00:153A: 30 C6        	bmi	L10141
  3692 00:153C: 3A           	dea
  3693 00:153D: 3A           	dea
  3694 00:153E: 3A           	dea
  3695 00:153F: 3A           	dea
  3696 00:1540: 30 C0        	bmi	L10141
  3697                        L10140:
  3698 00:1542: F4 xx xx     	pea	#<L187+5
  3699 00:1545: 20 xx xx     	jsr	__println
  3700 00:1548: E6 09        	inc	<L189+i_1
  3701                        L10138:
  3702 00:154A: A5 15        	lda	<L188+words_0
  3703 00:154C: A2 04 00     	ldx	#<$4
  3704                        	xref	__~div
  3705 00:154F: 20 xx xx     	jsr	__~div
  3706 00:1552: 1A           	ina
  3707 00:1553: 85 05        	sta	<R1
  3708 00:1555: 38           	sec
  3709 00:1556: A5 09        	lda	<L189+i_1
  3710 00:1558: E5 05        	sbc	<R1
  3711 00:155A: 70 03        	bvs	L193
  3712 00:155C: 49 00 80     	eor	#$8000
  3713                        L193:
  3714 00:155F: 10 99        	bpl	L10137
  3715 00:1561: A5 0F        	lda	<L188+1
  3716 00:1563: 85 15        	sta	<L188+1+6
  3717 00:1565: 2B           	pld
  3718 00:1566: 3B           	tsc
  3719 00:1567: 18           	clc
  3720 00:1568: 69 14 00     	adc	#L188+6
  3721 00:156B: 1B           	tcs
  3722 00:156C: 60           	rts
  3723             0000000E   L188	equ	14
  Tue Jun 17 2025  1:16                                                                                                    Page 78


  3724             00000009   L189	equ	9
  3725                        	ends
  3726                        	efunc
  3727                        	data
  3728                        L187:
  3729 00:0FA1: 57 20 00 20  	db	$57,$20,$00,$20,$00,$43,$43,$00
       00:0FA5: 00 43 43 00 
  3730 00:0FA9:              	ends
  3731                        	code
  3732                        	xdef	__cmd_go
  3733                        	func
  3734                        __cmd_go:
  3735                        	longa	on
  3736                        	longi	on
  3737 00:156D: 3B           	tsc
  3738 00:156E: 38           	sec
  3739 00:156F: E9 2A 00     	sbc	#L197
  3740 00:1572: 1B           	tcs
  3741 00:1573: 0B           	phd
  3742 00:1574: 5B           	tcd
  3743             00000003   core_0	set	3
  3744             00000000   testprog_1	set	0
  3745             00000024   result_1	set	36
  3746 00:1575: F4 xx xx     	pea	#<L199
  3747 00:1578: 18           	clc
  3748 00:1579: 7B           	tdc
  3749 00:157A: 69 05 00     	adc	#<L198+testprog_1
  3750 00:157D: 48           	pha
  3751 00:157E: A9 24 00     	lda	#$24
  3752                        	xref	__~mov
  3753 00:1581: 20 xx xx     	jsr	__~mov
  3754 00:1584: F4 24 00     	pea	#<$24
  3755 00:1587: 18           	clc
  3756 00:1588: 7B           	tdc
  3757 00:1589: 69 05 00     	adc	#<L198+testprog_1
  3758 00:158C: 48           	pha
  3759 00:158D: 20 xx xx     	jsr	__vmex
  3760 00:1590: 85 29        	sta	<L198+result_1
  3761 00:1592: F4 xx xx     	pea	#<L196
  3762 00:1595: 20 xx xx     	jsr	__println
  3763 00:1598: F4 xx xx     	pea	#<L196+1
  3764 00:159B: 20 xx xx     	jsr	__print
  3765 00:159E: F4 02 00     	pea	#<$2
  3766 00:15A1: A0 00 00     	ldy	#$0
  3767 00:15A4: A5 29        	lda	<L198+result_1
  3768 00:15A6: 10 01        	bpl	L200
  3769 00:15A8: 88           	dey
  3770                        L200:
  3771 00:15A9: 85 01        	sta	<R0
  3772 00:15AB: 84 03        	sty	<R0+2
  3773 00:15AD: D4 03        	pei	<R0+2
  3774 00:15AF: D4 01        	pei	<R0
  3775 00:15B1: 20 xx xx     	jsr	__itoh
  3776 00:15B4: 48           	pha
  3777 00:15B5: 20 xx xx     	jsr	__println
  3778 00:15B8: A5 2B        	lda	<L197+1
  3779 00:15BA: 85 2D        	sta	<L197+1+2
  3780 00:15BC: 2B           	pld
  Tue Jun 17 2025  1:16                                                                                                    Page 79


  3781 00:15BD: 3B           	tsc
  3782 00:15BE: 18           	clc
  3783 00:15BF: 69 2C 00     	adc	#L197+2
  3784 00:15C2: 1B           	tcs
  3785 00:15C3: 60           	rts
  3786             0000002A   L197	equ	42
  3787             00000005   L198	equ	5
  3788                        	ends
  3789                        	efunc
  3790                        	data
  3791                        L199:
  3792 00:0FA9: 11 AA 00 01  	db	$11,$AA,$0,$1,$11,$BB,$0,$B,$11,$CC
       00:0FAD: 11 BB 00 0B 
       00:0FB1: 11 CC 
  3793 00:0FB3: 00 0C 11 DD  	db	$0,$C,$11,$DD,$0,$D,$51,$D0,$0,$0
       00:0FB7: 00 0D 51 D0 
       00:0FBB: 00 00 
  3794 00:0FBD: 11 DD 00 01  	db	$11,$DD,$0,$1,$51,$D0,$0,$1,$42,$0
       00:0FC1: 51 D0 00 01 
       00:0FC5: 42 00 
  3795 00:0FC7: 00 00 48 00  	db	$0,$0,$48,$0,$0,$0
       00:0FCB: 00 00 
  3796 00:0FCD:              	ends
  3797                        	data
  3798                        L196:
  3799 00:0FCD: 00 20 20 65  	db	$00,$20,$20,$65,$78,$69,$74,$20,$63,$6F,$64,$65,$3A,$20,$00
       00:0FD1: 78 69 74 20 
       00:0FD5: 63 6F 64 65 
       00:0FD9: 3A 20 00 
  3800 00:0FDC:              	ends
  3801                        ;
  3802                        ;
  3803                        ;#ifndef ARDUINO
  3804                        ;
  3805                        ;#ifdef EMB_MAIN
  3806                        ;int vmexmain(int argc, char *argv[])
  3807                        ;#else
  3808                        ;int main(int argc, char *argv[])
  3809                        ;#endif
  3810                        ;{
  3811                        	code
  3812                        	xdef	__main
  3813                        	func
  3814                        __main:
  3815                        	longa	on
  3816                        	longi	on
  3817 00:15C4: 3B           	tsc
  3818 00:15C5: 38           	sec
  3819 00:15C6: E9 24 00     	sbc	#L203
  3820 00:15C9: 1B           	tcs
  3821 00:15CA: 0B           	phd
  3822 00:15CB: 5B           	tcd
  3823             00000003   argc_0	set	3
  3824             00000005   argv_0	set	5
  3825                        ;    char command[32];
  3826                        ;
  3827                        ;    #ifdef EMB_TESTS
  3828                        ;
  Tue Jun 17 2025  1:16                                                                                                    Page 80


  3829                        ;    int size_short = sizeof(short);
  3830                        ;    int size_int   = sizeof(int);
  3831                        ;    int size_long  = sizeof(long);
  3832                        ;
  3833                        ;    print("Size of short: "); println_num(size_short);
  3834                        ;    print("Size of int: ");   println_num(size_int);
  3835                        ;    print("Size of long: ");  println_num(size_long);
  3836                        ;
  3837                        ;    return runtests();
  3838                        ;    #endif
  3839                        ;
  3840                        ;    if (argc > 1 && strcmp(argv[1], "/test") == 0)
  3841             00000000   command_1	set	0
  3842                        ;    {
  3843 00:15CC: 38           	sec
  3844 00:15CD: A9 01 00     	lda	#$1
  3845 00:15D0: E5 27        	sbc	<L203+argc_0
  3846 00:15D2: 70 03        	bvs	L205
  3847 00:15D4: 49 00 80     	eor	#$8000
  3848                        L205:
  3849 00:15D7: 30 20        	bmi	L10142
  3850 00:15D9: F4 xx xx     	pea	#<L202
  3851 00:15DC: A0 02 00     	ldy	#$2
  3852 00:15DF: B1 29        	lda	(<L203+argv_0),Y
  3853 00:15E1: 48           	pha
  3854 00:15E2: 20 xx xx     	jsr	__strcmp
  3855 00:15E5: AA           	tax
  3856 00:15E6: D0 11        	bne	L10142
  3857                        ;        #ifdef RUN_TESTS
  3858                        ;        return runtests();
  3859 00:15E8: 20 xx xx     	jsr	__runtests
  3860                        L208:
  3861 00:15EB: A8           	tay
  3862 00:15EC: A5 25        	lda	<L203+1
  3863 00:15EE: 85 29        	sta	<L203+1+4
  3864 00:15F0: 2B           	pld
  3865 00:15F1: 3B           	tsc
  3866 00:15F2: 18           	clc
  3867 00:15F3: 69 28 00     	adc	#L203+4
  3868 00:15F6: 1B           	tcs
  3869 00:15F7: 98           	tya
  3870 00:15F8: 60           	rts
  3871                        ;        #else
  3872                        ;        println("");
  3873                        ;        println("  Tests are not compiled in this package.");
  3874                        ;        #endif
  3875                        ;    }
  3876                        ;    else if (argc > 1 && strcmp(argv[1], "/?") == 0)
  3877                        L10142:
  3878                        ;    {
  3879 00:15F9: 38           	sec
  3880 00:15FA: A9 01 00     	lda	#$1
  3881 00:15FD: E5 27        	sbc	<L203+argc_0
  3882 00:15FF: 70 03        	bvs	L209
  3883 00:1601: 49 00 80     	eor	#$8000
  3884                        L209:
  3885 00:1604: 30 35        	bmi	L10143
  3886 00:1606: F4 xx xx     	pea	#<L202+6
  Tue Jun 17 2025  1:16                                                                                                    Page 81


  3887 00:1609: A0 02 00     	ldy	#$2
  3888 00:160C: B1 29        	lda	(<L203+argv_0),Y
  3889 00:160E: 48           	pha
  3890 00:160F: 20 xx xx     	jsr	__strcmp
  3891 00:1612: AA           	tax
  3892 00:1613: D0 26        	bne	L10143
  3893                        ;        println("");
  3894 00:1615: F4 xx xx     	pea	#<L202+9
  3895 00:1618: 20 xx xx     	jsr	__println
  3896                        ;        cmd_version(&core);
  3897 00:161B: F4 xx xx     	pea	#<__core
  3898 00:161E: 20 xx xx     	jsr	__cmd_version
  3899                        ;        println("  /?    - help");
  3900 00:1621: F4 xx xx     	pea	#<L202+10
  3901 00:1624: 20 xx xx     	jsr	__println
  3902                        ;        println("  /test - tests");
  3903 00:1627: F4 xx xx     	pea	#<L202+25
  3904 00:162A: 20 xx xx     	jsr	__println
  3905                        ;        println("");
  3906 00:162D: F4 xx xx     	pea	#<L202+41
  3907 00:1630: 20 xx xx     	jsr	__println
  3908                        ;        println("  Without arguments is executed interactive VMEX monitor.");
  3909 00:1633: F4 xx xx     	pea	#<L202+42
  3910 00:1636: 20 xx xx     	jsr	__println
  3911                        ;
  3912                        ;    }
  3913                        ;    else
  3914 00:1639: 80 B0        	bra	L208
  3915                        L10143:
  3916                        ;    {
  3917                        ;        #ifdef MONITOR
  3918                        ;
  3919                        ;        println("");
  3920 00:163B: F4 xx xx     	pea	#<L202+100
  3921 00:163E: 20 xx xx     	jsr	__println
  3922                        ;        cmd_version(&core);
  3923 00:1641: F4 xx xx     	pea	#<__core
  3924 00:1644: 20 xx xx     	jsr	__cmd_version
  3925                        ;        println("  ? for help");
  3926 00:1647: F4 xx xx     	pea	#<L202+101
  3927 00:164A: 20 xx xx     	jsr	__println
  3928                        ;
  3929                        ;        while (1)
  3930                        L10145:
  3931                        ;        {
  3932                        ;            print("> ");
  3933 00:164D: F4 xx xx     	pea	#<L202+114
  3934 00:1650: 20 xx xx     	jsr	__print
  3935                        ;            input(command, sizeof(command));
  3936 00:1653: F4 20 00     	pea	#<$20
  3937 00:1656: 18           	clc
  3938 00:1657: 7B           	tdc
  3939 00:1658: 69 05 00     	adc	#<L204+command_1
  3940 00:165B: 48           	pha
  3941 00:165C: 20 xx xx     	jsr	__input
  3942                        ;
  3943                        ;            // Remove the newline character from the input
  3944                        ;            command[strcspn(command, "\n")] = 0;
  Tue Jun 17 2025  1:16                                                                                                    Page 82


  3945 00:165F: F4 xx xx     	pea	#<L202+117
  3946 00:1662: 18           	clc
  3947 00:1663: 7B           	tdc
  3948 00:1664: 69 05 00     	adc	#<L204+command_1
  3949 00:1667: 48           	pha
  3950 00:1668: 20 xx xx     	jsr	__strcspn
  3951 00:166B: AA           	tax
  3952 00:166C: E2 20        	sep	#$20
  3953                        	longa	off
  3954 00:166E: A9 00        	lda	#$0
  3955 00:1670: 95 05        	sta	<L204+command_1,X
  3956 00:1672: C2 20        	rep	#$20
  3957                        	longa	on
  3958                        ;
  3959                        ;
  3960                        ;            if (strcmp(command, "t") == 0)
  3961                        ;            {
  3962 00:1674: F4 xx xx     	pea	#<L202+119
  3963 00:1677: 18           	clc
  3964 00:1678: 7B           	tdc
  3965 00:1679: 69 05 00     	adc	#<L204+command_1
  3966 00:167C: 48           	pha
  3967 00:167D: 20 xx xx     	jsr	__strcmp
  3968 00:1680: AA           	tax
  3969 00:1681: D0 03        	bne	L10147
  3970                        ;                #ifdef RUN_TESTS
  3971                        ;                runtests();
  3972 00:1683: 20 xx xx     	jsr	__runtests
  3973                        ;                #else
  3974                        ;                println("");
  3975                        ;                println("  Tests are not compiled in this package.");
  3976                        ;                #endif
  3977                        ;            }
  3978                        ;
  3979                        ;            if (strcmp(command, "?") == 0)
  3980                        L10147:
  3981                        ;            {
  3982 00:1686: F4 xx xx     	pea	#<L202+121
  3983 00:1689: 18           	clc
  3984 00:168A: 7B           	tdc
  3985 00:168B: 69 05 00     	adc	#<L204+command_1
  3986 00:168E: 48           	pha
  3987 00:168F: 20 xx xx     	jsr	__strcmp
  3988 00:1692: AA           	tax
  3989 00:1693: D0 06        	bne	L10148
  3990                        ;                cmd_help(&core);
  3991 00:1695: F4 xx xx     	pea	#<__core
  3992 00:1698: 20 xx xx     	jsr	__cmd_help
  3993                        ;            }
  3994                        ;
  3995                        ;            if (strcmp(command, "q") == 0)
  3996                        L10148:
  3997                        ;            {
  3998 00:169B: F4 xx xx     	pea	#<L202+123
  3999 00:169E: 18           	clc
  4000 00:169F: 7B           	tdc
  4001 00:16A0: 69 05 00     	adc	#<L204+command_1
  4002 00:16A3: 48           	pha
  Tue Jun 17 2025  1:16                                                                                                    Page 83


  4003 00:16A4: 20 xx xx     	jsr	__strcmp
  4004 00:16A7: AA           	tax
  4005 00:16A8: D0 06        	bne	L10149
  4006                        ;                return 0;
  4007 00:16AA: A9 00 00     	lda	#$0
  4008 00:16AD: 82 3B FF     	brl	L208
  4009                        ;            }
  4010                        ;
  4011                        ;            if (strcmp(command, "v") == 0)
  4012                        L10149:
  4013                        ;            {
  4014 00:16B0: F4 xx xx     	pea	#<L202+125
  4015 00:16B3: 18           	clc
  4016 00:16B4: 7B           	tdc
  4017 00:16B5: 69 05 00     	adc	#<L204+command_1
  4018 00:16B8: 48           	pha
  4019 00:16B9: 20 xx xx     	jsr	__strcmp
  4020 00:16BC: AA           	tax
  4021 00:16BD: D0 06        	bne	L10150
  4022                        ;                cmd_version(&core);
  4023 00:16BF: F4 xx xx     	pea	#<__core
  4024 00:16C2: 20 xx xx     	jsr	__cmd_version
  4025                        ;            }
  4026                        ;
  4027                        ;            if (strcmp(command, "r") == 0)
  4028                        L10150:
  4029                        ;            {
  4030 00:16C5: F4 xx xx     	pea	#<L202+127
  4031 00:16C8: 18           	clc
  4032 00:16C9: 7B           	tdc
  4033 00:16CA: 69 05 00     	adc	#<L204+command_1
  4034 00:16CD: 48           	pha
  4035 00:16CE: 20 xx xx     	jsr	__strcmp
  4036 00:16D1: AA           	tax
  4037 00:16D2: D0 06        	bne	L10151
  4038                        ;                cmd_registers(&core);
  4039 00:16D4: F4 xx xx     	pea	#<__core
  4040 00:16D7: 20 xx xx     	jsr	__cmd_registers
  4041                        ;            }
  4042                        ;
  4043                        ;            if (strcmp(command, "m") == 0)
  4044                        L10151:
  4045                        ;            {
  4046 00:16DA: F4 xx xx     	pea	#<L202+129
  4047 00:16DD: 18           	clc
  4048 00:16DE: 7B           	tdc
  4049 00:16DF: 69 05 00     	adc	#<L204+command_1
  4050 00:16E2: 48           	pha
  4051 00:16E3: 20 xx xx     	jsr	__strcmp
  4052 00:16E6: AA           	tax
  4053 00:16E7: D0 0C        	bne	L10152
  4054                        ;                cmd_memory(&core, 0, 14);
  4055 00:16E9: F4 0E 00     	pea	#<$e
  4056 00:16EC: F4 00 00     	pea	#<$0
  4057 00:16EF: F4 xx xx     	pea	#<__core
  4058 00:16F2: 20 xx xx     	jsr	__cmd_memory
  4059                        ;            }
  4060                        ;
  Tue Jun 17 2025  1:16                                                                                                    Page 84


  4061                        ;            if (strcmp(command, "g") == 0)
  4062                        L10152:
  4063                        ;            {
  4064 00:16F5: F4 xx xx     	pea	#<L202+131
  4065 00:16F8: 18           	clc
  4066 00:16F9: 7B           	tdc
  4067 00:16FA: 69 05 00     	adc	#<L204+command_1
  4068 00:16FD: 48           	pha
  4069 00:16FE: 20 xx xx     	jsr	__strcmp
  4070 00:1701: AA           	tax
  4071 00:1702: F0 03        	beq	*+5
  4072 00:1704: 82 46 FF     	brl	L10145
  4073                        ;                cmd_go(&core);
  4074 00:1707: F4 xx xx     	pea	#<__core
  4075 00:170A: 20 xx xx     	jsr	__cmd_go
  4076                        ;            }
  4077                        ;
  4078                        ;        }
  4079 00:170D: 82 3D FF     	brl	L10145
  4080                        ;
  4081                        ;        #else
  4082                        ;
  4083                        ;        TU8 testprog[] =
  4084                        ;        {
  4085                        ;            0x11, 0xAA, 0x00, 0x01, // addi r10 r0 5
  4086                        ;            0x11, 0xBB, 0x00, 0x0B, // addi r11 r0 5
  4087                        ;            0x11, 0xCC, 0x00, 0x0C, // addi r12 r0 5
  4088                        ;            0x11, 0xDD, 0x00, 0x0D, // addi r13 r0 5
  4089                        ;
  4090                        ;            0x51, 0xD0, 0x00, 0x00, // wb r13 r0 0
  4091                        ;            0x11, 0xDD, 0x00, 0x01, // addi r13 r13 1
  4092                        ;            0x51, 0xD0, 0x00, 0x01, // wb r13 r0 1
  4093                        ;            0x42, 0x00, 0x00, 0x00, // ecall
  4094                        ;            0x48, 0x00, 0x00, 0x00, // ebreak
  4095                        ;        };
  4096                        ;
  4097                        ;        int result = vmex(testprog, sizeof(testprog));
  4098                        ;
  4099                        ;        println("");
  4100                        ;        print("  exit code: "); println(itoh(result,2));
  4101                        ;
  4102                        ;        #endif
  4103                        ;
  4104                        ;    }
  4105                        ;}
  4106             00000024   L203	equ	36
  4107             00000005   L204	equ	5
  4108                        	ends
  4109                        	efunc
  4110                        	data
  4111                        L202:
  4112 00:0FDC: 2F 74 65 73  	db	$2F,$74,$65,$73,$74,$00,$2F,$3F,$00,$00,$20,$20,$2F,$3F,$20
       00:0FE0: 74 00 2F 3F 
       00:0FE4: 00 00 20 20 
       00:0FE8: 2F 3F 20 
  4113 00:0FEB: 20 20 20 2D  	db	$20,$20,$20,$2D,$20,$68,$65,$6C,$70,$00,$20,$20,$2F,$74,$65
       00:0FEF: 20 68 65 6C 
       00:0FF3: 70 00 20 20 
  Tue Jun 17 2025  1:16                                                                                                    Page 85


       00:0FF7: 2F 74 65 
  4114 00:0FFA: 73 74 20 2D  	db	$73,$74,$20,$2D,$20,$74,$65,$73,$74,$73,$00,$00,$20,$20,$57
       00:0FFE: 20 74 65 73 
       00:1002: 74 73 00 00 
       00:1006: 20 20 57 
  4115 00:1009: 69 74 68 6F  	db	$69,$74,$68,$6F,$75,$74,$20,$61,$72,$67,$75,$6D,$65,$6E,$74
       00:100D: 75 74 20 61 
       00:1011: 72 67 75 6D 
       00:1015: 65 6E 74 
  4116 00:1018: 73 20 69 73  	db	$73,$20,$69,$73,$20,$65,$78,$65,$63,$75,$74,$65,$64,$20,$69
       00:101C: 20 65 78 65 
       00:1020: 63 75 74 65 
       00:1024: 64 20 69 
  4117 00:1027: 6E 74 65 72  	db	$6E,$74,$65,$72,$61,$63,$74,$69,$76,$65,$20,$56,$4D,$45,$58
       00:102B: 61 63 74 69 
       00:102F: 76 65 20 56 
       00:1033: 4D 45 58 
  4118 00:1036: 20 6D 6F 6E  	db	$20,$6D,$6F,$6E,$69,$74,$6F,$72,$2E,$00,$00,$20,$20,$3F,$20
       00:103A: 69 74 6F 72 
       00:103E: 2E 00 00 20 
       00:1042: 20 3F 20 
  4119 00:1045: 66 6F 72 20  	db	$66,$6F,$72,$20,$68,$65,$6C,$70,$00,$3E,$20,$00,$0A,$00,$74
       00:1049: 68 65 6C 70 
       00:104D: 00 3E 20 00 
       00:1051: 0A 00 74 
  4120 00:1054: 00 3F 00 71  	db	$00,$3F,$00,$71,$00,$76,$00,$72,$00,$6D,$00,$67,$00
       00:1058: 00 76 00 72 
       00:105C: 00 6D 00 67 
       00:1060: 00 
  4121 00:1061:              	ends
  4122                        ;#endif
  4123                        ;
  4124                        ;
  4125                        ;
  4126                        ;
  4127                        ;//main
  4128                        ;int vmex(const TU8 testprog[], int progsize)
  4129                        ;{
  4130                        	code
  4131                        	xdef	__vmex
  4132                        	func
  4133                        __vmex:
  4134                        	longa	on
  4135                        	longi	on
  4136 00:1710: 3B           	tsc
  4137 00:1711: 38           	sec
  4138 00:1712: E9 2C 00     	sbc	#L220
  4139 00:1715: 1B           	tcs
  4140 00:1716: 0B           	phd
  4141 00:1717: 5B           	tcd
  4142             00000003   testprog_0	set	3
  4143             00000005   progsize_0	set	5
  4144                        ;    TU8 opcode = 0;
  4145                        ;    TU8 rs1 = 0;
  4146                        ;    TU8 rs2 = 0;
  4147                        ;    TU8 rd = 0;
  4148                        ;    IMMS_TYPE imm = 0;
  4149                        ;
  Tue Jun 17 2025  1:16                                                                                                    Page 86


  4150                        ;    PC_TYPE pc = 0;
  4151                        ;
  4152                        ;    //temp debug
  4153                        ;    TS32 r10i = 0;
  4154                        ;
  4155                        ;
  4156                        ;    Core* _core_ = &core;
  4157                        ;
  4158                        ;    REGS_TYPE* _reg_ = _core_->regs;
  4159                        ;    TU8* _prog_ = _core_->prog;
  4160                        ;    TU8* _data_ = _core_->data;
  4161                        ;
  4162                        ;    TU8* _op_;
  4163                        ;    REGS_TYPE* _rd_;
  4164                        ;    REGS_TYPE* _rs1_;
  4165                        ;    REGS_TYPE* _rs2_;
  4166                        ;
  4167                        ;    //fill program
  4168                        ;    memcpy(_prog_, testprog, progsize);
  4169             00000000   opcode_1	set	0
  4170             00000001   rs1_1	set	1
  4171             00000002   rs2_1	set	2
  4172             00000003   rd_1	set	3
  4173             00000004   imm_1	set	4
  4174             00000006   pc_1	set	6
  4175             0000000A   r10i_1	set	10
  4176             0000000E   _core__1	set	14
  4177             00000010   _reg__1	set	16
  4178             00000012   _prog__1	set	18
  4179             00000014   _data__1	set	20
  4180             00000016   _op__1	set	22
  4181             00000018   _rd__1	set	24
  4182             0000001A   _rs1__1	set	26
  4183             0000001C   _rs2__1	set	28
  4184 00:1718: E2 20        	sep	#$20
  4185                        	longa	off
  4186 00:171A: 64 0D        	stz	<L221+opcode_1
  4187 00:171C: 64 0E        	stz	<L221+rs1_1
  4188 00:171E: 64 0F        	stz	<L221+rs2_1
  4189 00:1720: 64 10        	stz	<L221+rd_1
  4190 00:1722: C2 20        	rep	#$20
  4191                        	longa	on
  4192 00:1724: 64 11        	stz	<L221+imm_1
  4193 00:1726: 64 13        	stz	<L221+pc_1
  4194 00:1728: 64 15        	stz	<L221+pc_1+2
  4195 00:172A: 64 17        	stz	<L221+r10i_1
  4196 00:172C: 64 19        	stz	<L221+r10i_1+2
  4197 00:172E: A9 xx xx     	lda	#<__core
  4198 00:1731: 85 1B        	sta	<L221+_core__1
  4199 00:1733: 85 1D        	sta	<L221+_reg__1
  4200 00:1735: A9 C4 00     	lda	#$c4
  4201 00:1738: 18           	clc
  4202 00:1739: 65 1B        	adc	<L221+_core__1
  4203 00:173B: 85 1F        	sta	<L221+_prog__1
  4204 00:173D: A9 44 00     	lda	#$44
  4205 00:1740: 18           	clc
  4206 00:1741: 65 1B        	adc	<L221+_core__1
  4207 00:1743: 85 21        	sta	<L221+_data__1
  Tue Jun 17 2025  1:16                                                                                                    Page 87


  4208 00:1745: D4 31        	pei	<L220+progsize_0
  4209 00:1747: D4 2F        	pei	<L220+testprog_0
  4210 00:1749: D4 1F        	pei	<L221+_prog__1
  4211 00:174B: 20 xx xx     	jsr	__memcpy
  4212                        ;    core.pc = 0;
  4213 00:174E: 9C xx xx     	stz	|__core+64
  4214 00:1751: 9C xx xx     	stz	|__core+64+2
  4215                        ;
  4216                        ;    while (core.pc < progsize)
  4217                        L10154:
  4218 00:1754: A0 00 00     	ldy	#$0
  4219 00:1757: A5 31        	lda	<L220+progsize_0
  4220 00:1759: 10 01        	bpl	L222
  4221 00:175B: 88           	dey
  4222                        L222:
  4223 00:175C: 85 01        	sta	<R0
  4224 00:175E: 84 03        	sty	<R0+2
  4225 00:1760: AD xx xx     	lda	|__core+64
  4226 00:1763: C5 01        	cmp	<R0
  4227 00:1765: AD xx xx     	lda	|__core+64+2
  4228 00:1768: E5 03        	sbc	<R0+2
  4229 00:176A: 90 03        	bcc	*+5
  4230 00:176C: 82 59 09     	brl	L10155
  4231                        ;    {
  4232                        ;        pc = core.pc;
  4233 00:176F: AD xx xx     	lda	|__core+64
  4234 00:1772: 85 13        	sta	<L221+pc_1
  4235 00:1774: AD xx xx     	lda	|__core+64+2
  4236 00:1777: 85 15        	sta	<L221+pc_1+2
  4237                        ;
  4238                        ;        //parameters parsing
  4239                        ;        _op_ = (TU8*)&_prog_[pc];
  4240 00:1779: A5 1F        	lda	<L221+_prog__1
  4241 00:177B: 18           	clc
  4242 00:177C: 65 13        	adc	<L221+pc_1
  4243 00:177E: 85 23        	sta	<L221+_op__1
  4244                        ;        opcode = *_op_;
  4245 00:1780: E2 20        	sep	#$20
  4246                        	longa	off
  4247 00:1782: B2 23        	lda	(<L221+_op__1)
  4248 00:1784: 85 0D        	sta	<L221+opcode_1
  4249 00:1786: C2 20        	rep	#$20
  4250                        	longa	on
  4251                        ;
  4252                        ;        switch (opcode & 0xF0)
  4253 00:1788: A5 0D        	lda	<L221+opcode_1
  4254 00:178A: 29 F0 00     	and	#<$f0
  4255                        	xref	__~swt
  4256 00:178D: 20 xx xx     	jsr	__~swt
  4257 00:1790: 10 00        	dw	16
  4258 00:1792: 00 00        	dw	0
  4259 00:1794: xx xx        	dw	L10157-1
  4260 00:1796: 10 00        	dw	16
  4261 00:1798: xx xx        	dw	L10165-1
  4262 00:179A: 20 00        	dw	32
  4263 00:179C: xx xx        	dw	L10159-1
  4264 00:179E: 30 00        	dw	48
  4265 00:17A0: xx xx        	dw	L10159-1
  Tue Jun 17 2025  1:16                                                                                                    Page 88


  4266 00:17A2: 40 00        	dw	64
  4267 00:17A4: xx xx        	dw	L10165-1
  4268 00:17A6: 50 00        	dw	80
  4269 00:17A8: xx xx        	dw	L10169-1
  4270 00:17AA: 60 00        	dw	96
  4271 00:17AC: xx xx        	dw	L10171-1
  4272 00:17AE: 70 00        	dw	112
  4273 00:17B0: xx xx        	dw	L10171-1
  4274 00:17B2: 80 00        	dw	128
  4275 00:17B4: xx xx        	dw	L10169-1
  4276 00:17B6: 90 00        	dw	144
  4277 00:17B8: xx xx        	dw	L10157-1
  4278 00:17BA: A0 00        	dw	160
  4279 00:17BC: xx xx        	dw	L10165-1
  4280 00:17BE: B0 00        	dw	176
  4281 00:17C0: xx xx        	dw	L10169-1
  4282 00:17C2: C0 00        	dw	192
  4283 00:17C4: xx xx        	dw	L10165-1
  4284 00:17C6: D0 00        	dw	208
  4285 00:17C8: xx xx        	dw	L10165-1
  4286 00:17CA: E0 00        	dw	224
  4287 00:17CC: xx xx        	dw	L10165-1
  4288 00:17CE: F0 00        	dw	240
  4289 00:17D0: xx xx        	dw	L10169-1
  4290 00:17D2: xx xx        	dw	L10157-1
  4291                        ;        {
  4292                        ;            case R3_TYPE:
  4293                        ;            case R2_TYPE:
  4294                        L10159:
  4295                        ;            {
  4296                        ;                rd  = _op_[1] >> 4;
  4297 00:17D4: E2 20        	sep	#$20
  4298                        	longa	off
  4299 00:17D6: A0 01 00     	ldy	#$1
  4300 00:17D9: B1 23        	lda	(<L221+_op__1),Y
  4301 00:17DB: 4A           	lsr	A
  4302 00:17DC: 4A           	lsr	A
  4303 00:17DD: 4A           	lsr	A
  4304 00:17DE: 4A           	lsr	A
  4305 00:17DF: 85 10        	sta	<L221+rd_1
  4306                        ;                rs1 = _op_[2] >> 4;
  4307 00:17E1: C8           	iny
  4308 00:17E2: B1 23        	lda	(<L221+_op__1),Y
  4309 00:17E4: 4A           	lsr	A
  4310 00:17E5: 4A           	lsr	A
  4311 00:17E6: 4A           	lsr	A
  4312 00:17E7: 4A           	lsr	A
  4313 00:17E8: 85 0E        	sta	<L221+rs1_1
  4314                        ;                rs2 = _op_[3] >> 4;
  4315 00:17EA: C8           	iny
  4316 00:17EB: B1 23        	lda	(<L221+_op__1),Y
  4317 00:17ED: 4A           	lsr	A
  4318 00:17EE: 4A           	lsr	A
  4319 00:17EF: 4A           	lsr	A
  4320 00:17F0: 4A           	lsr	A
  4321 00:17F1: 85 0F        	sta	<L221+rs2_1
  4322 00:17F3: C2 20        	rep	#$20
  4323                        	longa	on
  Tue Jun 17 2025  1:16                                                                                                    Page 89


  4324                        ;                break;
  4325                        L10157:
  4326                        ;
  4327                        ;
  4328                        ;        _rd_ = &_reg_[rd];
  4329 00:17F5: A5 10        	lda	<L221+rd_1
  4330 00:17F7: 29 FF 00     	and	#$ff
  4331 00:17FA: 0A           	asl	A
  4332 00:17FB: 0A           	asl	A
  4333 00:17FC: 18           	clc
  4334 00:17FD: 65 1D        	adc	<L221+_reg__1
  4335 00:17FF: 85 25        	sta	<L221+_rd__1
  4336                        ;        _rs1_ = &_reg_[rs1];
  4337 00:1801: A5 0E        	lda	<L221+rs1_1
  4338 00:1803: 29 FF 00     	and	#$ff
  4339 00:1806: 0A           	asl	A
  4340 00:1807: 0A           	asl	A
  4341 00:1808: 18           	clc
  4342 00:1809: 65 1D        	adc	<L221+_reg__1
  4343 00:180B: 85 27        	sta	<L221+_rs1__1
  4344                        ;        _rs2_ = &_reg_[rs2];
  4345 00:180D: A5 0F        	lda	<L221+rs2_1
  4346 00:180F: 29 FF 00     	and	#$ff
  4347 00:1812: 0A           	asl	A
  4348 00:1813: 0A           	asl	A
  4349 00:1814: 18           	clc
  4350 00:1815: 65 1D        	adc	<L221+_reg__1
  4351 00:1817: 85 29        	sta	<L221+_rs2__1
  4352                        ;
  4353                        ;        *_reg_ = 0; //r0 is always 0, may be changed by JAL by PC, or as a mistake r0 = something
  4354 00:1819: A9 00 00     	lda	#$0
  4355 00:181C: 92 1D        	sta	(<L221+_reg__1)
  4356 00:181E: A0 02 00     	ldy	#$2
  4357 00:1821: 91 1D        	sta	(<L221+_reg__1),Y
  4358                        ;
  4359                        ;        //instruction execution
  4360                        ;        switch (opcode)
  4361 00:1823: A5 0D        	lda	<L221+opcode_1
  4362 00:1825: 29 FF 00     	and	#$ff
  4363                        	xref	__~swt
  4364 00:1828: 20 xx xx     	jsr	__~swt
  4365 00:182B: 55 00        	dw	85
  4366 00:182D: 00 00        	dw	0
  4367 00:182F: xx xx        	dw	L10175-1
  4368 00:1831: 11 00        	dw	17
  4369 00:1833: xx xx        	dw	L10195-1
  4370 00:1835: 12 00        	dw	18
  4371 00:1837: xx xx        	dw	L10196-1
  4372 00:1839: 13 00        	dw	19
  4373 00:183B: xx xx        	dw	L10197-1
  4374 00:183D: 14 00        	dw	20
  4375 00:183F: xx xx        	dw	L10198-1
  4376 00:1841: 15 00        	dw	21
  4377 00:1843: xx xx        	dw	L10199-1
  4378 00:1845: 16 00        	dw	22
  4379 00:1847: xx xx        	dw	L10200-1
  4380 00:1849: 17 00        	dw	23
  4381 00:184B: xx xx        	dw	L10201-1
  Tue Jun 17 2025  1:16                                                                                                    Page 90


  4382 00:184D: 18 00        	dw	24
  4383 00:184F: xx xx        	dw	L10201-1
  4384 00:1851: 1A 00        	dw	26
  4385 00:1853: xx xx        	dw	L10203-1
  4386 00:1855: 1B 00        	dw	27
  4387 00:1857: xx xx        	dw	L10204-1
  4388 00:1859: 1E 00        	dw	30
  4389 00:185B: xx xx        	dw	L10205-1
  4390 00:185D: 1F 00        	dw	31
  4391 00:185F: xx xx        	dw	L10175-1
  4392 00:1861: 21 00        	dw	33
  4393 00:1863: xx xx        	dw	L10187-1
  4394 00:1865: 22 00        	dw	34
  4395 00:1867: xx xx        	dw	L10188-1
  4396 00:1869: 23 00        	dw	35
  4397 00:186B: xx xx        	dw	L10189-1
  4398 00:186D: 24 00        	dw	36
  4399 00:186F: xx xx        	dw	L10190-1
  4400 00:1871: 25 00        	dw	37
  4401 00:1873: xx xx        	dw	L10191-1
  4402 00:1875: 26 00        	dw	38
  4403 00:1877: xx xx        	dw	L10192-1
  4404 00:1879: 27 00        	dw	39
  4405 00:187B: xx xx        	dw	L10193-1
  4406 00:187D: 28 00        	dw	40
  4407 00:187F: xx xx        	dw	L10194-1
  4408 00:1881: 31 00        	dw	49
  4409 00:1883: xx xx        	dw	L10177-1
  4410 00:1885: 32 00        	dw	50
  4411 00:1887: xx xx        	dw	L10178-1
  4412 00:1889: 33 00        	dw	51
  4413 00:188B: xx xx        	dw	L10179-1
  4414 00:188D: 34 00        	dw	52
  4415 00:188F: xx xx        	dw	L10180-1
  4416 00:1891: 35 00        	dw	53
  4417 00:1893: xx xx        	dw	L10181-1
  4418 00:1895: 36 00        	dw	54
  4419 00:1897: xx xx        	dw	L10182-1
  4420 00:1899: 37 00        	dw	55
  4421 00:189B: xx xx        	dw	L10183-1
  4422 00:189D: 38 00        	dw	56
  4423 00:189F: xx xx        	dw	L10184-1
  4424 00:18A1: 3A 00        	dw	58
  4425 00:18A3: xx xx        	dw	L10185-1
  4426 00:18A5: 3B 00        	dw	59
  4427 00:18A7: xx xx        	dw	L10186-1
  4428 00:18A9: 40 00        	dw	64
  4429 00:18AB: xx xx        	dw	L10175-1
  4430 00:18AD: 42 00        	dw	66
  4431 00:18AF: xx xx        	dw	L10221-1
  4432 00:18B1: 44 00        	dw	68
  4433 00:18B3: xx xx        	dw	L10226-1
  4434 00:18B5: 46 00        	dw	70
  4435 00:18B7: xx xx        	dw	L10224-1
  4436 00:18B9: 48 00        	dw	72
  4437 00:18BB: xx xx        	dw	L10222-1
  4438 00:18BD: 4C 00        	dw	76
  4439 00:18BF: xx xx        	dw	L10225-1
  Tue Jun 17 2025  1:16                                                                                                    Page 91


  4440 00:18C1: 4F 00        	dw	79
  4441 00:18C3: xx xx        	dw	L10220-1
  4442 00:18C5: 51 00        	dw	81
  4443 00:18C7: xx xx        	dw	L10237-1
  4444 00:18C9: 52 00        	dw	82
  4445 00:18CB: xx xx        	dw	L10238-1
  4446 00:18CD: 54 00        	dw	84
  4447 00:18CF: xx xx        	dw	L10239-1
  4448 00:18D1: 66 00        	dw	102
  4449 00:18D3: xx xx        	dw	L20421-1
  4450 00:18D5: 6C 00        	dw	108
  4451 00:18D7: xx xx        	dw	L10276-1
  4452 00:18D9: 71 00        	dw	113
  4453 00:18DB: xx xx        	dw	L10272-1
  4454 00:18DD: 7A 00        	dw	122
  4455 00:18DF: xx xx        	dw	L10273-1
  4456 00:18E1: 7F 00        	dw	127
  4457 00:18E3: xx xx        	dw	L10274-1
  4458 00:18E5: 81 00        	dw	129
  4459 00:18E7: xx xx        	dw	L10260-1
  4460 00:18E9: 82 00        	dw	130
  4461 00:18EB: xx xx        	dw	L10262-1
  4462 00:18ED: 83 00        	dw	131
  4463 00:18EF: xx xx        	dw	L10264-1
  4464 00:18F1: 84 00        	dw	132
  4465 00:18F3: xx xx        	dw	L10266-1
  4466 00:18F5: 85 00        	dw	133
  4467 00:18F7: xx xx        	dw	L10268-1
  4468 00:18F9: 86 00        	dw	134
  4469 00:18FB: xx xx        	dw	L10270-1
  4470 00:18FD: A1 00        	dw	161
  4471 00:18FF: xx xx        	dw	L10215-1
  4472 00:1901: A2 00        	dw	162
  4473 00:1903: xx xx        	dw	L10216-1
  4474 00:1905: A4 00        	dw	164
  4475 00:1907: xx xx        	dw	L10217-1
  4476 00:1909: AB 00        	dw	171
  4477 00:190B: xx xx        	dw	L10218-1
  4478 00:190D: AD 00        	dw	173
  4479 00:190F: xx xx        	dw	L10219-1
  4480 00:1911: B1 00        	dw	177
  4481 00:1913: xx xx        	dw	L10240-1
  4482 00:1915: B2 00        	dw	178
  4483 00:1917: xx xx        	dw	L10242-1
  4484 00:1919: B3 00        	dw	179
  4485 00:191B: xx xx        	dw	L10244-1
  4486 00:191D: B4 00        	dw	180
  4487 00:191F: xx xx        	dw	L10246-1
  4488 00:1921: B5 00        	dw	181
  4489 00:1923: xx xx        	dw	L10248-1
  4490 00:1925: B6 00        	dw	182
  4491 00:1927: xx xx        	dw	L10250-1
  4492 00:1929: BA 00        	dw	186
  4493 00:192B: xx xx        	dw	L10252-1
  4494 00:192D: BB 00        	dw	187
  4495 00:192F: xx xx        	dw	L10254-1
  4496 00:1931: BC 00        	dw	188
  4497 00:1933: xx xx        	dw	L10256-1
  Tue Jun 17 2025  1:16                                                                                                    Page 92


  4498 00:1935: BD 00        	dw	189
  4499 00:1937: xx xx        	dw	L10258-1
  4500 00:1939: C1 00        	dw	193
  4501 00:193B: xx xx        	dw	L10207-1
  4502 00:193D: C3 00        	dw	195
  4503 00:193F: xx xx        	dw	L10208-1
  4504 00:1941: C4 00        	dw	196
  4505 00:1943: xx xx        	dw	L10209-1
  4506 00:1945: C6 00        	dw	198
  4507 00:1947: xx xx        	dw	L10210-1
  4508 00:1949: D0 00        	dw	208
  4509 00:194B: xx xx        	dw	L10212-1
  4510 00:194D: DD 00        	dw	221
  4511 00:194F: xx xx        	dw	L10211-1
  4512 00:1951: DE 00        	dw	222
  4513 00:1953: xx xx        	dw	L10213-1
  4514 00:1955: DF 00        	dw	223
  4515 00:1957: xx xx        	dw	L10214-1
  4516 00:1959: E1 00        	dw	225
  4517 00:195B: xx xx        	dw	L10175-1
  4518 00:195D: E2 00        	dw	226
  4519 00:195F: xx xx        	dw	L10175-1
  4520 00:1961: E4 00        	dw	228
  4521 00:1963: xx xx        	dw	L10175-1
  4522 00:1965: EA 00        	dw	234
  4523 00:1967: xx xx        	dw	L10175-1
  4524 00:1969: EC 00        	dw	236
  4525 00:196B: xx xx        	dw	L10175-1
  4526 00:196D: EE 00        	dw	238
  4527 00:196F: xx xx        	dw	L10175-1
  4528 00:1971: EF 00        	dw	239
  4529 00:1973: xx xx        	dw	L10175-1
  4530 00:1975: F1 00        	dw	241
  4531 00:1977: xx xx        	dw	L10175-1
  4532 00:1979: F2 00        	dw	242
  4533 00:197B: xx xx        	dw	L10175-1
  4534 00:197D: F4 00        	dw	244
  4535 00:197F: xx xx        	dw	L10175-1
  4536 00:1981: xx xx        	dw	L10277-1
  4537                        ;            }
  4538                        ;
  4539                        ;            case I1_TYPE:
  4540                        ;            case IC_TYPE: //pseudo
  4541                        ;            case ID_TYPE: //pseudo
  4542                        ;            case IA_TYPE:
  4543                        ;            case I4_TYPE:
  4544                        ;            case IE_TYPE: //pseudo
  4545                        L10165:
  4546                        ;            {
  4547                        ;                rd  = _op_[1] >> 4;
  4548 00:1983: E2 20        	sep	#$20
  4549                        	longa	off
  4550 00:1985: A0 01 00     	ldy	#$1
  4551 00:1988: B1 23        	lda	(<L221+_op__1),Y
  4552 00:198A: 4A           	lsr	A
  4553 00:198B: 4A           	lsr	A
  4554 00:198C: 4A           	lsr	A
  4555 00:198D: 4A           	lsr	A
  Tue Jun 17 2025  1:16                                                                                                    Page 93


  4556 00:198E: 85 10        	sta	<L221+rd_1
  4557                        ;                rs1 = _op_[1] & 0xF;
  4558 00:1990: B1 23        	lda	(<L221+_op__1),Y
  4559 00:1992: 29 0F        	and	#<$f
  4560 00:1994: 85 0E        	sta	<L221+rs1_1
  4561 00:1996: C2 20        	rep	#$20
  4562                        	longa	on
  4563                        ;                imm = (_op_[2] << 8) | _op_[3];
  4564                        L20204:
  4565 00:1998: A0 02 00     	ldy	#$2
  4566 00:199B: B1 23        	lda	(<L221+_op__1),Y
  4567 00:199D: 29 FF 00     	and	#$ff
  4568 00:19A0: EB           	xba
  4569 00:19A1: 29 00 FF     	and	#$ff00
  4570 00:19A4: 85 01        	sta	<R0
  4571 00:19A6: C8           	iny
  4572 00:19A7: B1 23        	lda	(<L221+_op__1),Y
  4573 00:19A9: 29 FF 00     	and	#$ff
  4574 00:19AC: 05 01        	ora	<R0
  4575 00:19AE: 85 11        	sta	<L221+imm_1
  4576                        ;                break;
  4577 00:19B0: 82 42 FE     	brl	L10157
  4578                        ;            }
  4579                        ;
  4580                        ;            case S5_TYPE:
  4581                        ;            case SF_TYPE:
  4582                        ;            case SB_TYPE:
  4583                        ;            case S8_TYPE: //pseudo
  4584                        L10169:
  4585                        ;            {
  4586                        ;                rs1 = _op_[1] >> 4;
  4587 00:19B3: E2 20        	sep	#$20
  4588                        	longa	off
  4589 00:19B5: A0 01 00     	ldy	#$1
  4590 00:19B8: B1 23        	lda	(<L221+_op__1),Y
  4591 00:19BA: 4A           	lsr	A
  4592 00:19BB: 4A           	lsr	A
  4593 00:19BC: 4A           	lsr	A
  4594 00:19BD: 4A           	lsr	A
  4595 00:19BE: 85 0E        	sta	<L221+rs1_1
  4596                        ;                rs2 = _op_[1] & 0xF;
  4597 00:19C0: B1 23        	lda	(<L221+_op__1),Y
  4598 00:19C2: 29 0F        	and	#<$f
  4599 00:19C4: 85 0F        	sta	<L221+rs2_1
  4600 00:19C6: C2 20        	rep	#$20
  4601                        	longa	on
  4602                        ;                imm = (_op_[2] << 8) | _op_[3];
  4603                        ;                break;
  4604 00:19C8: 80 CE        	bra	L20204
  4605                        ;            }
  4606                        ;
  4607                        ;            case U7_TYPE:
  4608                        ;            case U6_TYPE: //pseudo
  4609                        L10171:
  4610                        ;            {
  4611                        ;                rd  = _op_[1] >> 4;
  4612 00:19CA: E2 20        	sep	#$20
  4613                        	longa	off
  Tue Jun 17 2025  1:16                                                                                                    Page 94


  4614 00:19CC: A0 01 00     	ldy	#$1
  4615 00:19CF: B1 23        	lda	(<L221+_op__1),Y
  4616 00:19D1: 4A           	lsr	A
  4617 00:19D2: 4A           	lsr	A
  4618 00:19D3: 4A           	lsr	A
  4619 00:19D4: 4A           	lsr	A
  4620 00:19D5: 85 10        	sta	<L221+rd_1
  4621 00:19D7: C2 20        	rep	#$20
  4622                        	longa	on
  4623                        ;                imm = (_op_[2] << 8) | _op_[3];
  4624                        ;                break;
  4625 00:19D9: 80 BD        	bra	L20204
  4626                        ;            }
  4627                        ;
  4628                        ;            case X9_TYPE:
  4629                        ;            case X0_TYPE:
  4630                        ;                //NOP + ASLIX HLL
  4631                        ;                break;
  4632                        ;        }
  4633                        ;        {
  4634                        ;
  4635                        ;            case OPX00_NOP:
  4636                        ;                break;
  4637                        ;
  4638                        ;
  4639                        ;
  4640                        ;            //R-TYPE ----------------------------------------------------------------------------
  4641                        ;            case OPR31_ADD:
  4642                        L10177:
  4643                        ;                //_reg_[rd] = (REGS_TYPE) _reg_[rs1] + (REGS_TYPE) _reg_[rs2];
  4644                        ;                *_rd_ = (REGS_TYPE) *_rs1_ + (REGS_TYPE) *_rs2_;
  4645 00:19DB: B2 27        	lda	(<L221+_rs1__1)
  4646 00:19DD: 18           	clc
  4647 00:19DE: 72 29        	adc	(<L221+_rs2__1)
  4648 00:19E0: 85 01        	sta	<R0
  4649 00:19E2: A0 02 00     	ldy	#$2
  4650 00:19E5: B1 27        	lda	(<L221+_rs1__1),Y
  4651 00:19E7: 71 29        	adc	(<L221+_rs2__1),Y
  4652                        L20189:
  4653 00:19E9: 85 03        	sta	<R0+2
  4654                        L20188:
  4655 00:19EB: A5 01        	lda	<R0
  4656 00:19ED: 92 25        	sta	(<L221+_rd__1)
  4657 00:19EF: A5 03        	lda	<R0+2
  4658                        L20185:
  4659 00:19F1: A0 02 00     	ldy	#$2
  4660 00:19F4: 91 25        	sta	(<L221+_rd__1),Y
  4661                        ;                break;
  4662                        L10175:
  4663                        ;
  4664                        ;        r10i = _reg_[10];
  4665 00:19F6: A0 28 00     	ldy	#$28
  4666 00:19F9: B1 1D        	lda	(<L221+_reg__1),Y
  4667 00:19FB: 85 17        	sta	<L221+r10i_1
  4668 00:19FD: C8           	iny
  4669 00:19FE: C8           	iny
  4670 00:19FF: B1 1D        	lda	(<L221+_reg__1),Y
  4671 00:1A01: 85 19        	sta	<L221+r10i_1+2
  Tue Jun 17 2025  1:16                                                                                                    Page 95


  4672                        ;
  4673                        ;        core.pc+=4;   //in absolute register jumps its corrected by - 4
  4674 00:1A03: A9 04 00     	lda	#$4
  4675 00:1A06: 18           	clc
  4676 00:1A07: 6D xx xx     	adc	|__core+64
  4677 00:1A0A: 8D xx xx     	sta	|__core+64
  4678 00:1A0D: B0 03        	bcs	*+5
  4679 00:1A0F: 82 42 FD     	brl	L10154
  4680 00:1A12: EE xx xx     	inc	|__core+64+2
  4681                        ;
  4682                        ;        #ifdef CONSOLE
  4683                        ;        //print("PC: "); println(itoh(core.pc, 4)); //TODO DEBUG
  4684                        ;        #endif
  4685                        ;    }
  4686 00:1A15: 82 3C FD     	brl	L10154
  4687                        ;
  4688                        ;            case OPR32_SUB:
  4689                        L10178:
  4690                        ;                *_rd_ = (REGS_TYPE) *_rs1_ - (REGS_TYPE) *_rs2_;
  4691 00:1A18: 38           	sec
  4692 00:1A19: B2 27        	lda	(<L221+_rs1__1)
  4693 00:1A1B: F2 29        	sbc	(<L221+_rs2__1)
  4694 00:1A1D: 85 01        	sta	<R0
  4695 00:1A1F: A0 02 00     	ldy	#$2
  4696 00:1A22: B1 27        	lda	(<L221+_rs1__1),Y
  4697 00:1A24: F1 29        	sbc	(<L221+_rs2__1),Y
  4698 00:1A26: 80 C1        	bra	L20189
  4699                        ;                break;
  4700                        ;
  4701                        ;            case OPR33_XOR:
  4702                        L10179:
  4703                        ;                *_rd_ = *_rs1_ ^ *_rs2_;
  4704 00:1A28: B2 29        	lda	(<L221+_rs2__1)
  4705 00:1A2A: 52 27        	eor	(<L221+_rs1__1)
  4706 00:1A2C: 85 01        	sta	<R0
  4707 00:1A2E: A0 02 00     	ldy	#$2
  4708 00:1A31: B1 29        	lda	(<L221+_rs2__1),Y
  4709 00:1A33: 51 27        	eor	(<L221+_rs1__1),Y
  4710 00:1A35: 80 B2        	bra	L20189
  4711                        ;                break;
  4712                        ;
  4713                        ;            case OPR34_AND:
  4714                        L10180:
  4715                        ;                *_rd_ = *_rs1_ & *_rs2_;
  4716 00:1A37: B2 29        	lda	(<L221+_rs2__1)
  4717 00:1A39: 32 27        	and	(<L221+_rs1__1)
  4718 00:1A3B: 85 01        	sta	<R0
  4719 00:1A3D: A0 02 00     	ldy	#$2
  4720 00:1A40: B1 29        	lda	(<L221+_rs2__1),Y
  4721 00:1A42: 31 27        	and	(<L221+_rs1__1),Y
  4722 00:1A44: 80 A3        	bra	L20189
  4723                        ;                break;
  4724                        ;
  4725                        ;            case OPR35_OR:
  4726                        L10181:
  4727                        ;                *_rd_ = *_rs1_ | *_rs2_;
  4728 00:1A46: B2 29        	lda	(<L221+_rs2__1)
  4729 00:1A48: 12 27        	ora	(<L221+_rs1__1)
  Tue Jun 17 2025  1:16                                                                                                    Page 96


  4730 00:1A4A: 85 01        	sta	<R0
  4731 00:1A4C: A0 02 00     	ldy	#$2
  4732 00:1A4F: B1 29        	lda	(<L221+_rs2__1),Y
  4733 00:1A51: 11 27        	ora	(<L221+_rs1__1),Y
  4734 00:1A53: 80 94        	bra	L20189
  4735                        ;                break;
  4736                        ;
  4737                        ;            case OPR36_SLL:
  4738                        L10182:
  4739                        ;                *_rd_ = *_rs1_ << (*_rs2_ & 0x1F);
  4740 00:1A55: A0 02 00     	ldy	#$2
  4741 00:1A58: B1 27        	lda	(<L221+_rs1__1),Y
  4742 00:1A5A: 48           	pha
  4743 00:1A5B: B2 27        	lda	(<L221+_rs1__1)
  4744 00:1A5D: 48           	pha
  4745 00:1A5E: B2 29        	lda	(<L221+_rs2__1)
  4746 00:1A60: 29 1F 00     	and	#<$1f
  4747 00:1A63: 85 05        	sta	<R1
  4748 00:1A65: 64 07        	stz	<R1+2
  4749                        L20233:
  4750 00:1A67: A5 05        	lda	<R1
  4751                        L20238:
  4752                        	xref	__~lasl
  4753 00:1A69: 20 xx xx     	jsr	__~lasl
  4754                        L20220:
  4755 00:1A6C: 85 01        	sta	<R0
  4756 00:1A6E: 86 03        	stx	<R0+2
  4757 00:1A70: 82 78 FF     	brl	L20188
  4758                        ;                break;
  4759                        ;
  4760                        ;            case OPR37_SRL:
  4761                        L10183:
  4762                        ;                *_rd_ = (REGU_TYPE) *_rs1_ >> (*_rs2_ & 0x1F);
  4763 00:1A73: A0 02 00     	ldy	#$2
  4764 00:1A76: B1 27        	lda	(<L221+_rs1__1),Y
  4765 00:1A78: 48           	pha
  4766 00:1A79: B2 27        	lda	(<L221+_rs1__1)
  4767 00:1A7B: 48           	pha
  4768 00:1A7C: B2 29        	lda	(<L221+_rs2__1)
  4769 00:1A7E: 29 1F 00     	and	#<$1f
  4770 00:1A81: 85 05        	sta	<R1
  4771 00:1A83: 64 07        	stz	<R1+2
  4772 00:1A85: A5 05        	lda	<R1
  4773                        	xref	__~llsr
  4774 00:1A87: 20 xx xx     	jsr	__~llsr
  4775 00:1A8A: 80 E0        	bra	L20220
  4776                        ;                break;
  4777                        ;
  4778                        ;            case OPR38_SRA:
  4779                        L10184:
  4780                        ;                *_rd_ = (REGS_TYPE) *_rs1_ >> (*_rs2_ & 0x1F);
  4781 00:1A8C: A0 02 00     	ldy	#$2
  4782 00:1A8F: B1 27        	lda	(<L221+_rs1__1),Y
  4783 00:1A91: 48           	pha
  4784 00:1A92: B2 27        	lda	(<L221+_rs1__1)
  4785 00:1A94: 48           	pha
  4786 00:1A95: B2 29        	lda	(<L221+_rs2__1)
  4787 00:1A97: 29 1F 00     	and	#<$1f
  Tue Jun 17 2025  1:16                                                                                                    Page 97


  4788 00:1A9A: 85 05        	sta	<R1
  4789 00:1A9C: 64 07        	stz	<R1+2
  4790                        L20241:
  4791 00:1A9E: A5 05        	lda	<R1
  4792                        	xref	__~lasr
  4793 00:1AA0: 20 xx xx     	jsr	__~lasr
  4794 00:1AA3: 80 C7        	bra	L20220
  4795                        ;                break;
  4796                        ;
  4797                        ;            case OPR3A_CLT: //SLT
  4798                        L10185:
  4799                        ;                *_rd_ = (REGS_TYPE) *_rs1_ < (REGS_TYPE) *_rs2_;
  4800 00:1AA5: 64 01        	stz	<R0
  4801 00:1AA7: 38           	sec
  4802 00:1AA8: B2 27        	lda	(<L221+_rs1__1)
  4803 00:1AAA: F2 29        	sbc	(<L221+_rs2__1)
  4804 00:1AAC: A0 02 00     	ldy	#$2
  4805 00:1AAF: B1 27        	lda	(<L221+_rs1__1),Y
  4806 00:1AB1: F1 29        	sbc	(<L221+_rs2__1),Y
  4807                        L20420:
  4808 00:1AB3: 70 03        	bvs	L225
  4809 00:1AB5: 49 00 80     	eor	#$8000
  4810                        L225:
  4811 00:1AB8: 30 02        	bmi	L224
  4812                        L20415:
  4813 00:1ABA: E6 01        	inc	<R0
  4814                        L224:
  4815 00:1ABC: A0 00 00     	ldy	#$0
  4816 00:1ABF: A5 01        	lda	<R0
  4817                        L20410:
  4818 00:1AC1: 10 01        	bpl	L227
  4819                        L20408:
  4820 00:1AC3: 88           	dey
  4821                        L227:
  4822 00:1AC4: 85 01        	sta	<R0
  4823 00:1AC6: 84 03        	sty	<R0+2
  4824 00:1AC8: 82 20 FF     	brl	L20188
  4825                        ;                break;
  4826                        ;
  4827                        ;            case OPR3B_CLTU: //SLTU
  4828                        L10186:
  4829                        ;                *_rd_ = (REGU_TYPE) *_rs1_ < (REGU_TYPE) *_rs2_;
  4830 00:1ACB: 64 01        	stz	<R0
  4831 00:1ACD: B2 27        	lda	(<L221+_rs1__1)
  4832 00:1ACF: D2 29        	cmp	(<L221+_rs2__1)
  4833 00:1AD1: A0 02 00     	ldy	#$2
  4834 00:1AD4: B1 27        	lda	(<L221+_rs1__1),Y
  4835 00:1AD6: F1 29        	sbc	(<L221+_rs2__1),Y
  4836                        L20424:
  4837 00:1AD8: B0 E2        	bcs	L224
  4838 00:1ADA: 80 DE        	bra	L20415
  4839                        ;                break;
  4840                        ;
  4841                        ;
  4842                        ;            #ifdef MULDIV
  4843                        ;            //OP R2-TYPE // "M" extension = takes 20-40% (now combined, using TU64X, TS64X structs, 8
                    bit C compatible)
  4844                        ;            case OPR21_MUL:
  Tue Jun 17 2025  1:16                                                                                                    Page 98


  4845                        L10187:
  4846                        ;                *_rd_ = mul(*_rs1_, *_rs2_);
  4847 00:1ADC: A0 02 00     	ldy	#$2
  4848 00:1ADF: B1 29        	lda	(<L221+_rs2__1),Y
  4849 00:1AE1: 48           	pha
  4850 00:1AE2: B2 29        	lda	(<L221+_rs2__1)
  4851 00:1AE4: 48           	pha
  4852 00:1AE5: B1 27        	lda	(<L221+_rs1__1),Y
  4853 00:1AE7: 48           	pha
  4854 00:1AE8: B2 27        	lda	(<L221+_rs1__1)
  4855 00:1AEA: 48           	pha
  4856 00:1AEB: 20 xx xx     	jsr	__mul
  4857 00:1AEE: 82 7B FF     	brl	L20220
  4858                        ;                break;
  4859                        ;
  4860                        ;            case OPR22_MULH:
  4861                        L10188:
  4862                        ;                *_rd_ = mulh(*_rs1_, *_rs2_);
  4863 00:1AF1: A0 02 00     	ldy	#$2
  4864 00:1AF4: B1 29        	lda	(<L221+_rs2__1),Y
  4865 00:1AF6: 48           	pha
  4866 00:1AF7: B2 29        	lda	(<L221+_rs2__1)
  4867 00:1AF9: 48           	pha
  4868 00:1AFA: B1 27        	lda	(<L221+_rs1__1),Y
  4869 00:1AFC: 48           	pha
  4870 00:1AFD: B2 27        	lda	(<L221+_rs1__1)
  4871 00:1AFF: 48           	pha
  4872 00:1B00: 20 xx xx     	jsr	__mulh
  4873 00:1B03: 82 66 FF     	brl	L20220
  4874                        ;                break;
  4875                        ;
  4876                        ;            case OPR23_MULHU:
  4877                        L10189:
  4878                        ;                *_rd_ = mulhu(*_rs1_, *_rs2_);
  4879 00:1B06: A0 02 00     	ldy	#$2
  4880 00:1B09: B1 29        	lda	(<L221+_rs2__1),Y
  4881 00:1B0B: 48           	pha
  4882 00:1B0C: B2 29        	lda	(<L221+_rs2__1)
  4883 00:1B0E: 48           	pha
  4884 00:1B0F: B1 27        	lda	(<L221+_rs1__1),Y
  4885 00:1B11: 48           	pha
  4886 00:1B12: B2 27        	lda	(<L221+_rs1__1)
  4887 00:1B14: 48           	pha
  4888 00:1B15: 20 xx xx     	jsr	__mulhu
  4889 00:1B18: 82 51 FF     	brl	L20220
  4890                        ;                break;
  4891                        ;
  4892                        ;            case OPR24_MULHSU:
  4893                        L10190:
  4894                        ;//                print("mrs1:  "); println(itoh(*_rs1_,8));
  4895                        ;//                print("mrs2:  "); println(itoh(*_rs2_,8));
  4896                        ;
  4897                        ;                *_rd_ = mulhsu(*_rs1_, *_rs2_);
  4898 00:1B1B: A0 02 00     	ldy	#$2
  4899 00:1B1E: B1 29        	lda	(<L221+_rs2__1),Y
  4900 00:1B20: 48           	pha
  4901 00:1B21: B2 29        	lda	(<L221+_rs2__1)
  4902 00:1B23: 48           	pha
  Tue Jun 17 2025  1:16                                                                                                    Page 99


  4903 00:1B24: B1 27        	lda	(<L221+_rs1__1),Y
  4904 00:1B26: 48           	pha
  4905 00:1B27: B2 27        	lda	(<L221+_rs1__1)
  4906 00:1B29: 48           	pha
  4907 00:1B2A: 20 xx xx     	jsr	__mulhsu
  4908 00:1B2D: 82 3C FF     	brl	L20220
  4909                        ;
  4910                        ;//                print("mrd:  "); println(itoh(*_rd_,8));
  4911                        ;
  4912                        ;                break;
  4913                        ;
  4914                        ;            case OPR25_DIV:
  4915                        L10191:
  4916                        ;                *_rd_ = *_rs1_ / *_rs2_;
  4917 00:1B30: A0 02 00     	ldy	#$2
  4918 00:1B33: B1 29        	lda	(<L221+_rs2__1),Y
  4919 00:1B35: 48           	pha
  4920 00:1B36: B2 29        	lda	(<L221+_rs2__1)
  4921 00:1B38: 48           	pha
  4922 00:1B39: B1 27        	lda	(<L221+_rs1__1),Y
  4923 00:1B3B: 48           	pha
  4924 00:1B3C: B2 27        	lda	(<L221+_rs1__1)
  4925 00:1B3E: 48           	pha
  4926                        	xref	__~ldiv
  4927 00:1B3F: 20 xx xx     	jsr	__~ldiv
  4928 00:1B42: 82 27 FF     	brl	L20220
  4929                        ;                break;
  4930                        ;
  4931                        ;            case OPR26_DIVU:
  4932                        L10192:
  4933                        ;                *_rd_ = (TU32)*_rs1_ / (TU32)*_rs2_;
  4934 00:1B45: A0 02 00     	ldy	#$2
  4935 00:1B48: B1 29        	lda	(<L221+_rs2__1),Y
  4936 00:1B4A: 48           	pha
  4937 00:1B4B: B2 29        	lda	(<L221+_rs2__1)
  4938 00:1B4D: 48           	pha
  4939 00:1B4E: B1 27        	lda	(<L221+_rs1__1),Y
  4940 00:1B50: 48           	pha
  4941 00:1B51: B2 27        	lda	(<L221+_rs1__1)
  4942 00:1B53: 48           	pha
  4943                        	xref	__~ludv
  4944 00:1B54: 20 xx xx     	jsr	__~ludv
  4945 00:1B57: 82 12 FF     	brl	L20220
  4946                        ;                break;
  4947                        ;
  4948                        ;            case OPR27_REM:
  4949                        L10193:
  4950                        ;                *_rd_ = *_rs1_ % *_rs2_;
  4951 00:1B5A: A0 02 00     	ldy	#$2
  4952 00:1B5D: B1 29        	lda	(<L221+_rs2__1),Y
  4953 00:1B5F: 48           	pha
  4954 00:1B60: B2 29        	lda	(<L221+_rs2__1)
  4955 00:1B62: 48           	pha
  4956 00:1B63: B1 27        	lda	(<L221+_rs1__1),Y
  4957 00:1B65: 48           	pha
  4958 00:1B66: B2 27        	lda	(<L221+_rs1__1)
  4959 00:1B68: 48           	pha
  4960                        	xref	__~lmod
  Tue Jun 17 2025  1:16                                                                                                    Page 100


  4961 00:1B69: 20 xx xx     	jsr	__~lmod
  4962 00:1B6C: 82 FD FE     	brl	L20220
  4963                        ;                break;
  4964                        ;
  4965                        ;            case OPR28_REMU:
  4966                        L10194:
  4967                        ;                *_rd_ = (TU32)*_rs1_ % (TU32)*_rs2_;
  4968 00:1B6F: A0 02 00     	ldy	#$2
  4969 00:1B72: B1 29        	lda	(<L221+_rs2__1),Y
  4970 00:1B74: 48           	pha
  4971 00:1B75: B2 29        	lda	(<L221+_rs2__1)
  4972 00:1B77: 48           	pha
  4973 00:1B78: B1 27        	lda	(<L221+_rs1__1),Y
  4974 00:1B7A: 48           	pha
  4975 00:1B7B: B2 27        	lda	(<L221+_rs1__1)
  4976 00:1B7D: 48           	pha
  4977                        	xref	__~lumd
  4978 00:1B7E: 20 xx xx     	jsr	__~lumd
  4979 00:1B81: 82 E8 FE     	brl	L20220
  4980                        ;                break;
  4981                        ;            #endif
  4982                        ;
  4983                        ;
  4984                        ;            //I-TYPE ----------------------------------------------------------------------------
  4985                        ;            case OPI11_ADDI:
  4986                        L10195:
  4987                        ;                //*_rd_ = (REGS_TYPE) *_rs1_ + (IMMS_TYPE) imm;
  4988                        ;                *_rd_ = (REGS_TYPE) (*_rs1_ + (REGS_TYPE) imm); //FIXED !!!
  4989 00:1B84: A0 00 00     	ldy	#$0
  4990 00:1B87: A5 11        	lda	<L221+imm_1
  4991 00:1B89: 10 01        	bpl	L231
  4992 00:1B8B: 88           	dey
  4993                        L231:
  4994 00:1B8C: 85 01        	sta	<R0
  4995 00:1B8E: 84 03        	sty	<R0+2
  4996 00:1B90: A5 01        	lda	<R0
  4997 00:1B92: 18           	clc
  4998 00:1B93: 72 27        	adc	(<L221+_rs1__1)
  4999 00:1B95: 85 05        	sta	<R1
  5000 00:1B97: A5 03        	lda	<R0+2
  5001 00:1B99: A0 02 00     	ldy	#$2
  5002 00:1B9C: 71 27        	adc	(<L221+_rs1__1),Y
  5003                        L20257:
  5004 00:1B9E: 85 07        	sta	<R1+2
  5005 00:1BA0: A5 05        	lda	<R1
  5006 00:1BA2: 92 25        	sta	(<L221+_rd__1)
  5007 00:1BA4: A5 07        	lda	<R1+2
  5008 00:1BA6: 82 48 FE     	brl	L20185
  5009                        ;                break;
  5010                        ;
  5011                        ;            case OPI12_SUBI: //pseudo
  5012                        L10196:
  5013                        ;                //*_rd_ = (REGS_TYPE) *_rs1_ - (IMMS_TYPE) imm;
  5014                        ;                *_rd_ = (REGS_TYPE) (*_rs1_ - (REGS_TYPE) imm); //POOR TEST?, FIXED !!!
  5015 00:1BA9: A0 00 00     	ldy	#$0
  5016 00:1BAC: A5 11        	lda	<L221+imm_1
  5017 00:1BAE: 10 01        	bpl	L232
  5018 00:1BB0: 88           	dey
  Tue Jun 17 2025  1:16                                                                                                    Page 101


  5019                        L232:
  5020 00:1BB1: 85 01        	sta	<R0
  5021 00:1BB3: 84 03        	sty	<R0+2
  5022 00:1BB5: 38           	sec
  5023 00:1BB6: B2 27        	lda	(<L221+_rs1__1)
  5024 00:1BB8: E5 01        	sbc	<R0
  5025 00:1BBA: 85 05        	sta	<R1
  5026 00:1BBC: A0 02 00     	ldy	#$2
  5027 00:1BBF: B1 27        	lda	(<L221+_rs1__1),Y
  5028 00:1BC1: E5 03        	sbc	<R0+2
  5029 00:1BC3: 80 D9        	bra	L20257
  5030                        ;                break;
  5031                        ;
  5032                        ;            case OPI13_XORI:
  5033                        L10197:
  5034                        ;                *_rd_ = *_rs1_ ^ ((REGS_TYPE) imm & 0xFFFF);
  5035 00:1BC5: A5 11        	lda	<L221+imm_1
  5036 00:1BC7: 85 01        	sta	<R0
  5037 00:1BC9: 64 03        	stz	<R0+2
  5038 00:1BCB: B2 27        	lda	(<L221+_rs1__1)
  5039 00:1BCD: 45 01        	eor	<R0
  5040 00:1BCF: 85 05        	sta	<R1
  5041 00:1BD1: A0 02 00     	ldy	#$2
  5042 00:1BD4: B1 27        	lda	(<L221+_rs1__1),Y
  5043 00:1BD6: 45 03        	eor	<R0+2
  5044 00:1BD8: 80 C4        	bra	L20257
  5045                        ;                break;
  5046                        ;
  5047                        ;            case OPI14_ANDI:
  5048                        L10198:
  5049                        ;                *_rd_ = *_rs1_ & ((REGS_TYPE) imm & 0xFFFF);
  5050 00:1BDA: A0 00 00     	ldy	#$0
  5051 00:1BDD: A5 11        	lda	<L221+imm_1
  5052 00:1BDF: 10 01        	bpl	L233
  5053 00:1BE1: 88           	dey
  5054                        L233:
  5055 00:1BE2: 85 01        	sta	<R0
  5056 00:1BE4: 84 03        	sty	<R0+2
  5057 00:1BE6: B2 27        	lda	(<L221+_rs1__1)
  5058 00:1BE8: 25 01        	and	<R0
  5059 00:1BEA: 85 05        	sta	<R1
  5060 00:1BEC: A0 02 00     	ldy	#$2
  5061 00:1BEF: B1 27        	lda	(<L221+_rs1__1),Y
  5062 00:1BF1: 25 03        	and	<R0+2
  5063 00:1BF3: 85 07        	sta	<R1+2
  5064 00:1BF5: A5 05        	lda	<R1
  5065                        L20265:
  5066 00:1BF7: 85 01        	sta	<R0
  5067 00:1BF9: 64 03        	stz	<R0+2
  5068 00:1BFB: 82 ED FD     	brl	L20188
  5069                        ;                break;
  5070                        ;
  5071                        ;            case OPI15_ORI:
  5072                        L10199:
  5073                        ;
  5074                        ;                //print("irs1:  "); println(itoh(*_rs1_,8));
  5075                        ;
  5076                        ;                *_rd_ = *_rs1_ | ((REGS_TYPE) imm & 0xFFFF);
  Tue Jun 17 2025  1:16                                                                                                    Page 102


  5077 00:1BFE: A5 11        	lda	<L221+imm_1
  5078 00:1C00: 85 01        	sta	<R0
  5079 00:1C02: 64 03        	stz	<R0+2
  5080 00:1C04: B2 27        	lda	(<L221+_rs1__1)
  5081 00:1C06: 05 01        	ora	<R0
  5082 00:1C08: 85 05        	sta	<R1
  5083 00:1C0A: A0 02 00     	ldy	#$2
  5084 00:1C0D: B1 27        	lda	(<L221+_rs1__1),Y
  5085 00:1C0F: 05 03        	ora	<R0+2
  5086 00:1C11: 80 8B        	bra	L20257
  5087                        ;
  5088                        ;                //print("mrs2:  "); println(itoh(*_rs2_,8));
  5089                        ;                //print("ird:  "); println(itoh(*_rd_,8));
  5090                        ;
  5091                        ;                break;
  5092                        ;
  5093                        ;            case OPI16_SLLI:
  5094                        L10200:
  5095                        ;                *_rd_ = *_rs1_ << ((TU8) imm & 0x1F);
  5096 00:1C13: A0 02 00     	ldy	#$2
  5097 00:1C16: B1 27        	lda	(<L221+_rs1__1),Y
  5098 00:1C18: 48           	pha
  5099 00:1C19: B2 27        	lda	(<L221+_rs1__1)
  5100 00:1C1B: 48           	pha
  5101 00:1C1C: A5 11        	lda	<L221+imm_1
  5102 00:1C1E: 29 1F 00     	and	#<$1f
  5103 00:1C21: 85 05        	sta	<R1
  5104 00:1C23: 82 41 FE     	brl	L20233
  5105                        ;                break;
  5106                        ;
  5107                        ;            case OPI17_SRLI:
  5108                        L10201:
  5109                        ;                *_rd_ = *_rs1_ >> ((TU8) imm & 0x1F);
  5110 00:1C26: A0 02 00     	ldy	#$2
  5111 00:1C29: B1 27        	lda	(<L221+_rs1__1),Y
  5112 00:1C2B: 48           	pha
  5113 00:1C2C: B2 27        	lda	(<L221+_rs1__1)
  5114 00:1C2E: 48           	pha
  5115 00:1C2F: A5 11        	lda	<L221+imm_1
  5116 00:1C31: 29 1F 00     	and	#<$1f
  5117 00:1C34: 85 05        	sta	<R1
  5118 00:1C36: 82 65 FE     	brl	L20241
  5119                        ;                break;
  5120                        ;
  5121                        ;            case OPI18_SRAI:
  5122                        ;                *_rd_ = (REGS_TYPE) *_rs1_ >> ((TU8) imm & 0x1F);
  5123                        ;                break;
  5124                        ;
  5125                        ;            case OPI1A_CLTI: //SLTI
  5126                        L10203:
  5127                        ;//                //TODO //DEBUG //CC65 //root cause => ADDI
  5128                        ;//                x3 = (REGS_TYPE) *_rs1_; x4 = (IMMS_TYPE) imm;
  5129                        ;//                printf("   rs1: %s ", itoh(x3,8)); printf("imm: %s", itoh(x4,8)); printf("\n");
  5130                        ;
  5131                        ;                *_rd_ = (REGS_TYPE) *_rs1_ < (IMMS_TYPE) imm; //& 0xFFFF !! cc65 !! SOLVED???? IMMS_T
                    YPE vs REGS_TYPE
  5132 00:1C39: 64 01        	stz	<R0
  5133 00:1C3B: A0 00 00     	ldy	#$0
  Tue Jun 17 2025  1:16                                                                                                    Page 103


  5134 00:1C3E: A5 11        	lda	<L221+imm_1
  5135 00:1C40: 10 01        	bpl	L235
  5136 00:1C42: 88           	dey
  5137                        L235:
  5138 00:1C43: 85 05        	sta	<R1
  5139 00:1C45: 84 07        	sty	<R1+2
  5140 00:1C47: 38           	sec
  5141 00:1C48: B2 27        	lda	(<L221+_rs1__1)
  5142 00:1C4A: E5 05        	sbc	<R1
  5143 00:1C4C: A0 02 00     	ldy	#$2
  5144 00:1C4F: B1 27        	lda	(<L221+_rs1__1),Y
  5145 00:1C51: E5 07        	sbc	<R1+2
  5146 00:1C53: 82 5D FE     	brl	L20420
  5147                        ;                break;
  5148                        ;
  5149                        ;            case OPI1B_CLTIU: //SLTIU
  5150                        L10204:
  5151                        ;                *_rd_ = (REGU_TYPE) *_rs1_ < (REGU_TYPE) imm;
  5152 00:1C56: 64 01        	stz	<R0
  5153 00:1C58: A0 00 00     	ldy	#$0
  5154 00:1C5B: A5 11        	lda	<L221+imm_1
  5155 00:1C5D: 10 01        	bpl	L240
  5156 00:1C5F: 88           	dey
  5157                        L240:
  5158 00:1C60: 85 05        	sta	<R1
  5159 00:1C62: 84 07        	sty	<R1+2
  5160 00:1C64: B2 27        	lda	(<L221+_rs1__1)
  5161 00:1C66: C5 05        	cmp	<R1
  5162 00:1C68: A0 02 00     	ldy	#$2
  5163 00:1C6B: B1 27        	lda	(<L221+_rs1__1),Y
  5164 00:1C6D: E5 07        	sbc	<R1+2
  5165 00:1C6F: 82 66 FE     	brl	L20424
  5166                        ;                break;
  5167                        ;
  5168                        ;
  5169                        ;            //LOAD IMMEDIATE
  5170                        ;            case OPI1E_LI: //pseudo //16bit //or 1F ??
  5171                        L10205:
  5172                        ;                *_rd_ = (IMMS_TYPE) imm;
  5173 00:1C72: A0 00 00     	ldy	#$0
  5174 00:1C75: A5 11        	lda	<L221+imm_1
  5175 00:1C77: 82 47 FE     	brl	L20410
  5176                        ;                break;
  5177                        ;
  5178                        ;            case OPI1F_LI: //pseudo fusion
  5179                        ;                //TODO LI 32bit LUI combined
  5180                        ;                break;
  5181                        ;
  5182                        ;
  5183                        ;
  5184                        ;            //COMPARE TO ZERO ---------------------------------------------------------------
  5185                        ;            case OPIC1_CLTZ: //pseudo
  5186                        L10207:
  5187                        ;                *_rd_ = (REGS_TYPE) *_rs1_ < 0;
  5188 00:1C7A: 64 01        	stz	<R0
  5189 00:1C7C: A0 02 00     	ldy	#$2
  5190 00:1C7F: B1 27        	lda	(<L221+_rs1__1),Y
  5191 00:1C81: 30 03        	bmi	*+5
  Tue Jun 17 2025  1:16                                                                                                    Page 104


  5192 00:1C83: 82 36 FE     	brl	L224
  5193 00:1C86: 82 31 FE     	brl	L20415
  5194                        ;                break;
  5195                        ;
  5196                        ;            //case OPIC2_CLEZ: //pseudo
  5197                        ;
  5198                        ;            case OPIC3_CNEZ: //pseudo
  5199                        L10208:
  5200                        ;                *_rd_ = (REGS_TYPE) *_rs1_ != 0;
  5201 00:1C89: 64 01        	stz	<R0
  5202 00:1C8B: B2 27        	lda	(<L221+_rs1__1)
  5203 00:1C8D: A0 02 00     	ldy	#$2
  5204 00:1C90: 11 27        	ora	(<L221+_rs1__1),Y
  5205 00:1C92: D0 03        	bne	*+5
  5206 00:1C94: 82 25 FE     	brl	L224
  5207 00:1C97: 82 20 FE     	brl	L20415
  5208                        ;                break;
  5209                        ;
  5210                        ;            case OPIC4_CEQZ: //pseudo
  5211                        L10209:
  5212                        ;                *_rd_ = (REGS_TYPE) *_rs1_ == 0;
  5213 00:1C9A: 64 01        	stz	<R0
  5214 00:1C9C: B2 27        	lda	(<L221+_rs1__1)
  5215 00:1C9E: A0 02 00     	ldy	#$2
  5216 00:1CA1: 11 27        	ora	(<L221+_rs1__1),Y
  5217 00:1CA3: F0 03        	beq	*+5
  5218 00:1CA5: 82 14 FE     	brl	L224
  5219 00:1CA8: 82 0F FE     	brl	L20415
  5220                        ;                break;
  5221                        ;
  5222                        ;            //case OPIC5_CGEZ: //pseudo
  5223                        ;
  5224                        ;            case OPIC6_CGTZ: //pseudo
  5225                        L10210:
  5226                        ;                *_rd_ = (REGS_TYPE) *_rs1_ > 0;
  5227 00:1CAB: 64 01        	stz	<R0
  5228 00:1CAD: 38           	sec
  5229 00:1CAE: A9 00 00     	lda	#$0
  5230 00:1CB1: F2 27        	sbc	(<L221+_rs1__1)
  5231 00:1CB3: A9 00 00     	lda	#$0
  5232 00:1CB6: A0 02 00     	ldy	#$2
  5233 00:1CB9: F1 27        	sbc	(<L221+_rs1__1),Y
  5234 00:1CBB: 82 F5 FD     	brl	L20420
  5235                        ;                break;
  5236                        ;
  5237                        ;
  5238                        ;            //MOV, INIT, UNARY ---------------------------------------------------------------
  5239                        ;            case OPIDD_MOV: //pseudo //MV !!! vyjimecne, pseudo jako I-TYPE !!!
  5240                        L10211:
  5241                        ;                *_rd_ = (REGS_TYPE) *_rs1_;
  5242 00:1CBE: B2 27        	lda	(<L221+_rs1__1)
  5243 00:1CC0: 92 25        	sta	(<L221+_rd__1)
  5244 00:1CC2: A0 02 00     	ldy	#$2
  5245 00:1CC5: B1 27        	lda	(<L221+_rs1__1),Y
  5246 00:1CC7: 82 27 FD     	brl	L20185
  5247                        ;                break;
  5248                        ;
  5249                        ;            case OPID0_INI: //pseudo //MV // ???????????????????? pouze rd !!! vyjimecne, pseudo jako
  Tue Jun 17 2025  1:16                                                                                                    Page 105


                     I-TYPE !!!
  5250                        L10212:
  5251                        ;                *_rd_ = 0;
  5252 00:1CCA: A9 00 00     	lda	#$0
  5253 00:1CCD: 92 25        	sta	(<L221+_rd__1)
  5254 00:1CCF: 82 1F FD     	brl	L20185
  5255                        ;                break;
  5256                        ;
  5257                        ;            case OPIDE_NEG: //pseudo
  5258                        L10213:
  5259                        ;                *_rd_ = 0 - (REGS_TYPE) *_rs1_; //rs1 !!! vyjimecne, pseudo jako I-TYPE!!!
  5260 00:1CD2: 38           	sec
  5261 00:1CD3: A9 00 00     	lda	#$0
  5262 00:1CD6: F2 27        	sbc	(<L221+_rs1__1)
  5263 00:1CD8: 85 01        	sta	<R0
  5264 00:1CDA: A9 00 00     	lda	#$0
  5265 00:1CDD: A0 02 00     	ldy	#$2
  5266 00:1CE0: F1 27        	sbc	(<L221+_rs1__1),Y
  5267 00:1CE2: 82 04 FD     	brl	L20189
  5268                        ;                break;
  5269                        ;
  5270                        ;            case OPIDF_NOT: //pseudo
  5271                        L10214:
  5272                        ;                *_rd_ = *_rs1_ ^ 0xFFFFFFFF; //rs1 !!! standard, pseudo I-TYPE !!!
  5273 00:1CE5: B2 27        	lda	(<L221+_rs1__1)
  5274 00:1CE7: 49 FF FF     	eor	#<$ffffffff
  5275 00:1CEA: 85 01        	sta	<R0
  5276 00:1CEC: A0 02 00     	ldy	#$2
  5277 00:1CEF: B1 27        	lda	(<L221+_rs1__1),Y
  5278 00:1CF1: 49 FF FF     	eor	#^$ffffffff
  5279 00:1CF4: 82 F2 FC     	brl	L20189
  5280                        ;                break;
  5281                        ;
  5282                        ;
  5283                        ;            //DATA MEMORY ACCESS ---------------------------------------------------------------
  5284                        ;            case OPIA1_LB:
  5285                        L10215:
  5286                        ;                { TU8* ptr = (TU8*)&_data_[*_rs1_ + imm]; *_rd_ = *(TS8*)ptr; }
  5287             0000001E   ptr_2	set	30
  5288 00:1CF7: A0 00 00     	ldy	#$0
  5289 00:1CFA: A5 11        	lda	<L221+imm_1
  5290 00:1CFC: 10 01        	bpl	L257
  5291 00:1CFE: 88           	dey
  5292                        L257:
  5293 00:1CFF: 85 01        	sta	<R0
  5294 00:1D01: 84 03        	sty	<R0+2
  5295 00:1D03: A5 01        	lda	<R0
  5296 00:1D05: 18           	clc
  5297 00:1D06: 72 27        	adc	(<L221+_rs1__1)
  5298 00:1D08: 85 05        	sta	<R1
  5299 00:1D0A: A5 03        	lda	<R0+2
  5300 00:1D0C: A0 02 00     	ldy	#$2
  5301 00:1D0F: 71 27        	adc	(<L221+_rs1__1),Y
  5302 00:1D11: 85 07        	sta	<R1+2
  5303 00:1D13: A5 21        	lda	<L221+_data__1
  5304 00:1D15: 18           	clc
  5305 00:1D16: 65 05        	adc	<R1
  5306 00:1D18: 85 2B        	sta	<L221+ptr_2
  Tue Jun 17 2025  1:16                                                                                                    Page 106


  5307 00:1D1A: 88           	dey
  5308 00:1D1B: 88           	dey
  5309 00:1D1C: B2 2B        	lda	(<L221+ptr_2)
  5310 00:1D1E: 29 FF 00     	and	#$ff
  5311 00:1D21: 89 80 00     	bit	#$80
  5312 00:1D24: D0 03        	bne	*+5
  5313 00:1D26: 82 9B FD     	brl	L227
  5314 00:1D29: 09 00 FF     	ora	#$ff00
  5315 00:1D2C: 82 94 FD     	brl	L20408
  5316                        ;                break;
  5317                        ;
  5318                        ;            case OPIA2_LH:
  5319                        L10216:
  5320                        ;                { TU8* ptr = (TU8*)&_data_[*_rs1_ + imm]; *_rd_ = *(TS16*)ptr; }
  5321             0000001E   ptr_3	set	30
  5322 00:1D2F: A0 00 00     	ldy	#$0
  5323 00:1D32: A5 11        	lda	<L221+imm_1
  5324 00:1D34: 10 01        	bpl	L259
  5325 00:1D36: 88           	dey
  5326                        L259:
  5327 00:1D37: 85 01        	sta	<R0
  5328 00:1D39: 84 03        	sty	<R0+2
  5329 00:1D3B: A5 01        	lda	<R0
  5330 00:1D3D: 18           	clc
  5331 00:1D3E: 72 27        	adc	(<L221+_rs1__1)
  5332 00:1D40: 85 05        	sta	<R1
  5333 00:1D42: A5 03        	lda	<R0+2
  5334 00:1D44: A0 02 00     	ldy	#$2
  5335 00:1D47: 71 27        	adc	(<L221+_rs1__1),Y
  5336 00:1D49: 85 07        	sta	<R1+2
  5337 00:1D4B: A5 21        	lda	<L221+_data__1
  5338 00:1D4D: 18           	clc
  5339 00:1D4E: 65 05        	adc	<R1
  5340 00:1D50: 85 2B        	sta	<L221+ptr_3
  5341 00:1D52: 88           	dey
  5342 00:1D53: 88           	dey
  5343 00:1D54: B2 2B        	lda	(<L221+ptr_3)
  5344 00:1D56: 82 68 FD     	brl	L20410
  5345                        ;                break;
  5346                        ;
  5347                        ;            case OPIA4_LW:
  5348                        L10217:
  5349                        ;                { TU8* ptr = (TU8*)&_data_[*_rs1_ + imm]; *_rd_ = *(TS32*)ptr; }
  5350             0000001E   ptr_4	set	30
  5351 00:1D59: A0 00 00     	ldy	#$0
  5352 00:1D5C: A5 11        	lda	<L221+imm_1
  5353 00:1D5E: 10 01        	bpl	L261
  5354 00:1D60: 88           	dey
  5355                        L261:
  5356 00:1D61: 85 01        	sta	<R0
  5357 00:1D63: 84 03        	sty	<R0+2
  5358 00:1D65: A5 01        	lda	<R0
  5359 00:1D67: 18           	clc
  5360 00:1D68: 72 27        	adc	(<L221+_rs1__1)
  5361 00:1D6A: 85 05        	sta	<R1
  5362 00:1D6C: A5 03        	lda	<R0+2
  5363 00:1D6E: A0 02 00     	ldy	#$2
  5364 00:1D71: 71 27        	adc	(<L221+_rs1__1),Y
  Tue Jun 17 2025  1:16                                                                                                    Page 107


  5365 00:1D73: 85 07        	sta	<R1+2
  5366 00:1D75: A5 21        	lda	<L221+_data__1
  5367 00:1D77: 18           	clc
  5368 00:1D78: 65 05        	adc	<R1
  5369 00:1D7A: 85 2B        	sta	<L221+ptr_4
  5370 00:1D7C: B2 2B        	lda	(<L221+ptr_4)
  5371 00:1D7E: 92 25        	sta	(<L221+_rd__1)
  5372 00:1D80: B1 2B        	lda	(<L221+ptr_4),Y
  5373 00:1D82: 82 6C FC     	brl	L20185
  5374                        ;                break;
  5375                        ;
  5376                        ;            case OPIAB_LBU:
  5377                        L10218:
  5378                        ;                { TU8* mem_ptr = (TU8*)&_data_[*_rs1_ + imm]; *_rd_ = *(TU8*)mem_ptr; }
  5379             0000001E   mem_ptr_5	set	30
  5380 00:1D85: A0 00 00     	ldy	#$0
  5381 00:1D88: A5 11        	lda	<L221+imm_1
  5382 00:1D8A: 10 01        	bpl	L262
  5383 00:1D8C: 88           	dey
  5384                        L262:
  5385 00:1D8D: 85 01        	sta	<R0
  5386 00:1D8F: 84 03        	sty	<R0+2
  5387 00:1D91: A5 01        	lda	<R0
  5388 00:1D93: 18           	clc
  5389 00:1D94: 72 27        	adc	(<L221+_rs1__1)
  5390 00:1D96: 85 05        	sta	<R1
  5391 00:1D98: A5 03        	lda	<R0+2
  5392 00:1D9A: A0 02 00     	ldy	#$2
  5393 00:1D9D: 71 27        	adc	(<L221+_rs1__1),Y
  5394 00:1D9F: 85 07        	sta	<R1+2
  5395 00:1DA1: A5 21        	lda	<L221+_data__1
  5396 00:1DA3: 18           	clc
  5397 00:1DA4: 65 05        	adc	<R1
  5398 00:1DA6: 85 2B        	sta	<L221+mem_ptr_5
  5399 00:1DA8: B2 2B        	lda	(<L221+mem_ptr_5)
  5400 00:1DAA: 29 FF 00     	and	#$ff
  5401 00:1DAD: 82 47 FE     	brl	L20265
  5402                        ;                break;
  5403                        ;
  5404                        ;            case OPIAD_LHU:
  5405                        L10219:
  5406                        ;                { TU8* mem_ptr = (TU8*)&_data_[*_rs1_ + imm]; *_rd_ = *(TU16*)mem_ptr; }
  5407             0000001E   mem_ptr_6	set	30
  5408 00:1DB0: A0 00 00     	ldy	#$0
  5409 00:1DB3: A5 11        	lda	<L221+imm_1
  5410 00:1DB5: 10 01        	bpl	L263
  5411 00:1DB7: 88           	dey
  5412                        L263:
  5413 00:1DB8: 85 01        	sta	<R0
  5414 00:1DBA: 84 03        	sty	<R0+2
  5415 00:1DBC: A5 01        	lda	<R0
  5416 00:1DBE: 18           	clc
  5417 00:1DBF: 72 27        	adc	(<L221+_rs1__1)
  5418 00:1DC1: 85 05        	sta	<R1
  5419 00:1DC3: A5 03        	lda	<R0+2
  5420 00:1DC5: A0 02 00     	ldy	#$2
  5421 00:1DC8: 71 27        	adc	(<L221+_rs1__1),Y
  5422 00:1DCA: 85 07        	sta	<R1+2
  Tue Jun 17 2025  1:16                                                                                                    Page 108


  5423 00:1DCC: A5 21        	lda	<L221+_data__1
  5424 00:1DCE: 18           	clc
  5425 00:1DCF: 65 05        	adc	<R1
  5426 00:1DD1: 85 2B        	sta	<L221+mem_ptr_6
  5427 00:1DD3: B2 2B        	lda	(<L221+mem_ptr_6)
  5428 00:1DD5: 82 1F FE     	brl	L20265
  5429                        ;                break;
  5430                        ;
  5431                        ;
  5432                        ;            //INDIRECT JUMP, RETURN
  5433                        ;            case OPI4F_JALR:
  5434                        L10220:
  5435                        ;                *_rd_ = pc + 4; core.pc = (*_rs1_ + (imm << LSHIFT) - 4);  //& ~0x1; in RISCV !!!!!!!
                    !!!!!!!!!!!!!
  5436 00:1DD8: A9 04 00     	lda	#$4
  5437 00:1DDB: 18           	clc
  5438 00:1DDC: 65 13        	adc	<L221+pc_1
  5439 00:1DDE: 85 01        	sta	<R0
  5440 00:1DE0: A9 00 00     	lda	#$0
  5441 00:1DE3: 65 15        	adc	<L221+pc_1+2
  5442 00:1DE5: 85 03        	sta	<R0+2
  5443 00:1DE7: A5 01        	lda	<R0
  5444 00:1DE9: 92 25        	sta	(<L221+_rd__1)
  5445 00:1DEB: A5 03        	lda	<R0+2
  5446 00:1DED: A0 02 00     	ldy	#$2
  5447 00:1DF0: 91 25        	sta	(<L221+_rd__1),Y
  5448 00:1DF2: A5 11        	lda	<L221+imm_1
  5449 00:1DF4: 0A           	asl	A
  5450 00:1DF5: 0A           	asl	A
  5451 00:1DF6: 85 01        	sta	<R0
  5452 00:1DF8: 88           	dey
  5453 00:1DF9: 88           	dey
  5454 00:1DFA: A5 01        	lda	<R0
  5455 00:1DFC: 10 01        	bpl	L264
  5456 00:1DFE: 88           	dey
  5457                        L264:
  5458 00:1DFF: 85 01        	sta	<R0
  5459 00:1E01: 84 03        	sty	<R0+2
  5460 00:1E03: A5 01        	lda	<R0
  5461 00:1E05: 18           	clc
  5462 00:1E06: 72 27        	adc	(<L221+_rs1__1)
  5463 00:1E08: 85 05        	sta	<R1
  5464 00:1E0A: A5 03        	lda	<R0+2
  5465 00:1E0C: A0 02 00     	ldy	#$2
  5466 00:1E0F: 71 27        	adc	(<L221+_rs1__1),Y
  5467 00:1E11: 85 07        	sta	<R1+2
  5468 00:1E13: A9 FC FF     	lda	#$fffc
  5469 00:1E16: 18           	clc
  5470 00:1E17: 65 05        	adc	<R1
  5471 00:1E19: 8D xx xx     	sta	|__core+64
  5472 00:1E1C: A9 FF FF     	lda	#$ffff
  5473 00:1E1F: 65 07        	adc	<R1+2
  5474                        L20274:
  5475 00:1E21: 8D xx xx     	sta	|__core+64+2
  5476                        ;                break;
  5477 00:1E24: 82 CF FB     	brl	L10175
  5478                        ;
  5479                        ;
  Tue Jun 17 2025  1:16                                                                                                    Page 109


  5480                        ;            //SYSTEM
  5481                        ;            case OPI42_ECALL: //SYS imm = 0
  5482                        L10221:
  5483                        ;                #ifdef CONSOLE
  5484                        ;                println("  system call");
  5485 00:1E27: F4 xx xx     	pea	#<L219
  5486                        L20275:
  5487 00:1E2A: 20 xx xx     	jsr	__println
  5488                        ;                #endif
  5489                        ;                break;
  5490 00:1E2D: 82 C6 FB     	brl	L10175
  5491                        ;
  5492                        ;            case OPI48_EBREAK: //SYS imm = 1
  5493                        L10222:
  5494                        ;                #ifdef CONSOLE
  5495                        ;                println("  breakpoint");
  5496 00:1E30: F4 xx xx     	pea	#<L219+14
  5497                        ;                #endif
  5498                        ;                break;
  5499 00:1E33: 80 F5        	bra	L20275
  5500                        ;
  5501                        ;            case OPI40_FENCE: //NOP, ignored
  5502                        ;                  break;
  5503                        ;
  5504                        ;
  5505                        ;            //96 ???
  5506                        ;            case OPI46_IGOTO: //pseudo //JR
  5507                        ;
  5508                        ;            //9C ???
  5509                        ;            case OPI4C_ICALL: //pseudo //JALR
  5510                        L10225:
  5511                        ;                _reg_[1] = pc + 4; core.pc = *_rs1_ - 4;      //absolute register call //fixed here _
                    reg[1] instead of *_rd_ = write directly to link register !!!  argument is only address !!!
  5512 00:1E35: A9 04 00     	lda	#$4
  5513 00:1E38: 18           	clc
  5514 00:1E39: 65 13        	adc	<L221+pc_1
  5515 00:1E3B: 85 01        	sta	<R0
  5516 00:1E3D: A9 00 00     	lda	#$0
  5517 00:1E40: 65 15        	adc	<L221+pc_1+2
  5518 00:1E42: 85 03        	sta	<R0+2
  5519 00:1E44: A5 01        	lda	<R0
  5520 00:1E46: A0 04 00     	ldy	#$4
  5521 00:1E49: 91 1D        	sta	(<L221+_reg__1),Y
  5522 00:1E4B: A5 03        	lda	<R0+2
  5523 00:1E4D: C8           	iny
  5524 00:1E4E: C8           	iny
  5525 00:1E4F: 91 1D        	sta	(<L221+_reg__1),Y
  5526                        ;                break;
  5527                        L10224:
  5528                        ;                core.pc = *_rs1_ - 4;                      //absolute register goto
  5529 00:1E51: A9 FC FF     	lda	#$fffc
  5530 00:1E54: 18           	clc
  5531 00:1E55: 72 27        	adc	(<L221+_rs1__1)
  5532 00:1E57: 8D xx xx     	sta	|__core+64
  5533 00:1E5A: A9 FF FF     	lda	#$ffff
  5534 00:1E5D: A0 02 00     	ldy	#$2
  5535 00:1E60: 71 27        	adc	(<L221+_rs1__1),Y
  5536                        ;                break;
  Tue Jun 17 2025  1:16                                                                                                    Page 110


  5537 00:1E62: 80 BD        	bra	L20274
  5538                        ;
  5539                        ;
  5540                        ;            case OPI44_RET: //pseudo //RET
  5541                        L10226:
  5542                        ;                core.pc = _reg_[1] - 4;                    //absolute register return (SP) - works fo
                    r single level call only
  5543 00:1E64: 18           	clc
  5544 00:1E65: A9 FC FF     	lda	#$fffc
  5545 00:1E68: A0 04 00     	ldy	#$4
  5546 00:1E6B: 71 1D        	adc	(<L221+_reg__1),Y
  5547 00:1E6D: 8D xx xx     	sta	|__core+64
  5548 00:1E70: A9 FF FF     	lda	#$ffff
  5549 00:1E73: C8           	iny
  5550 00:1E74: C8           	iny
  5551 00:1E75: 71 1D        	adc	(<L221+_reg__1),Y
  5552                        ;                break;
  5553 00:1E77: 80 A8        	bra	L20274
  5554                        ;
  5555                        ;
  5556                        ;
  5557                        ;            case OPIEC_FCALL: //pseudo //CALL
  5558                        ;                //TODO
  5559                        ;                break;
  5560                        ;
  5561                        ;            case OPIEE_FTAIL: //pseudo //TAIL
  5562                        ;                //TODO
  5563                        ;                break;
  5564                        ;
  5565                        ;
  5566                        ;            case OPIEA_LA: //pseudo (LI)
  5567                        ;                //TODO
  5568                        ;                break;
  5569                        ;
  5570                        ;            case OPIEF_LA: //pseudo fusion
  5571                        ;                //TODO
  5572                        ;                break;
  5573                        ;
  5574                        ;            case OPIE1_LB: //pseudo fusion
  5575                        ;                //TODO
  5576                        ;                break;
  5577                        ;
  5578                        ;            case OPIE2_LH: //pseudo fusion
  5579                        ;                //TODO
  5580                        ;                break;
  5581                        ;
  5582                        ;            case OPIE4_LW: //pseudo fusion
  5583                        ;                //TODO
  5584                        ;                break;
  5585                        ;
  5586                        ;            case OPSF1_WB: //pseudo fusion
  5587                        ;                //TODO
  5588                        ;                break;
  5589                        ;
  5590                        ;            case OPSF2_WH: //pseudo fusion
  5591                        ;                //TODO
  5592                        ;                break;
  5593                        ;
  Tue Jun 17 2025  1:16                                                                                                    Page 111


  5594                        ;            case OPSF4_WW: //pseudo fusion
  5595                        ;                //TODO
  5596                        ;                break;
  5597                        ;
  5598                        ;
  5599                        ;            //DATA MEMORY FLUSH ---------------------------------------------------------------
  5600                        ;            case OPS51_WB: //SB
  5601                        L10237:
  5602                        ;                { TU8* ptr = (TU8*)&_data_[*_rs2_ + imm]; *(TU8*)ptr = (TU8)(*_rs1_ & 0xFF); }
  5603             0000001E   ptr_7	set	30
  5604 00:1E79: A0 00 00     	ldy	#$0
  5605 00:1E7C: A5 11        	lda	<L221+imm_1
  5606 00:1E7E: 10 01        	bpl	L265
  5607 00:1E80: 88           	dey
  5608                        L265:
  5609 00:1E81: 85 01        	sta	<R0
  5610 00:1E83: 84 03        	sty	<R0+2
  5611 00:1E85: A5 01        	lda	<R0
  5612 00:1E87: 18           	clc
  5613 00:1E88: 72 29        	adc	(<L221+_rs2__1)
  5614 00:1E8A: 85 05        	sta	<R1
  5615 00:1E8C: A5 03        	lda	<R0+2
  5616 00:1E8E: A0 02 00     	ldy	#$2
  5617 00:1E91: 71 29        	adc	(<L221+_rs2__1),Y
  5618 00:1E93: 85 07        	sta	<R1+2
  5619 00:1E95: A5 21        	lda	<L221+_data__1
  5620 00:1E97: 18           	clc
  5621 00:1E98: 65 05        	adc	<R1
  5622 00:1E9A: 85 2B        	sta	<L221+ptr_7
  5623 00:1E9C: B2 27        	lda	(<L221+_rs1__1)
  5624 00:1E9E: 29 FF 00     	and	#<$ff
  5625 00:1EA1: 85 01        	sta	<R0
  5626 00:1EA3: 64 03        	stz	<R0+2
  5627 00:1EA5: E2 20        	sep	#$20
  5628                        	longa	off
  5629 00:1EA7: A5 01        	lda	<R0
  5630 00:1EA9: 92 2B        	sta	(<L221+ptr_7)
  5631 00:1EAB: C2 20        	rep	#$20
  5632                        	longa	on
  5633                        ;                break;
  5634 00:1EAD: 82 46 FB     	brl	L10175
  5635                        ;
  5636                        ;            case OPS52_WH: //SH
  5637                        L10238:
  5638                        ;                { TU8* ptr = (TU8*)&_data_[*_rs2_ + imm]; *(TU16*)ptr = (TU16)(*_rs1_ & 0xFFFF); }
  5639             0000001E   ptr_8	set	30
  5640 00:1EB0: A0 00 00     	ldy	#$0
  5641 00:1EB3: A5 11        	lda	<L221+imm_1
  5642 00:1EB5: 10 01        	bpl	L266
  5643 00:1EB7: 88           	dey
  5644                        L266:
  5645 00:1EB8: 85 01        	sta	<R0
  5646 00:1EBA: 84 03        	sty	<R0+2
  5647 00:1EBC: A5 01        	lda	<R0
  5648 00:1EBE: 18           	clc
  5649 00:1EBF: 72 29        	adc	(<L221+_rs2__1)
  5650 00:1EC1: 85 05        	sta	<R1
  5651 00:1EC3: A5 03        	lda	<R0+2
  Tue Jun 17 2025  1:16                                                                                                    Page 112


  5652 00:1EC5: A0 02 00     	ldy	#$2
  5653 00:1EC8: 71 29        	adc	(<L221+_rs2__1),Y
  5654 00:1ECA: 85 07        	sta	<R1+2
  5655 00:1ECC: A5 21        	lda	<L221+_data__1
  5656 00:1ECE: 18           	clc
  5657 00:1ECF: 65 05        	adc	<R1
  5658 00:1ED1: 85 2B        	sta	<L221+ptr_8
  5659 00:1ED3: B2 27        	lda	(<L221+_rs1__1)
  5660 00:1ED5: 85 01        	sta	<R0
  5661 00:1ED7: 64 03        	stz	<R0+2
  5662 00:1ED9: A5 01        	lda	<R0
  5663 00:1EDB: 92 2B        	sta	(<L221+ptr_8)
  5664                        ;                break;
  5665 00:1EDD: 82 16 FB     	brl	L10175
  5666                        ;
  5667                        ;            case OPS54_WW: //SW
  5668                        L10239:
  5669                        ;                { TU8* ptr = (TU8*)&_data_[*_rs2_ + imm]; *(TU32*)ptr = *_rs1_; }
  5670             0000001E   ptr_9	set	30
  5671 00:1EE0: A0 00 00     	ldy	#$0
  5672 00:1EE3: A5 11        	lda	<L221+imm_1
  5673 00:1EE5: 10 01        	bpl	L267
  5674 00:1EE7: 88           	dey
  5675                        L267:
  5676 00:1EE8: 85 01        	sta	<R0
  5677 00:1EEA: 84 03        	sty	<R0+2
  5678 00:1EEC: A5 01        	lda	<R0
  5679 00:1EEE: 18           	clc
  5680 00:1EEF: 72 29        	adc	(<L221+_rs2__1)
  5681 00:1EF1: 85 05        	sta	<R1
  5682 00:1EF3: A5 03        	lda	<R0+2
  5683 00:1EF5: A0 02 00     	ldy	#$2
  5684 00:1EF8: 71 29        	adc	(<L221+_rs2__1),Y
  5685 00:1EFA: 85 07        	sta	<R1+2
  5686 00:1EFC: A5 21        	lda	<L221+_data__1
  5687 00:1EFE: 18           	clc
  5688 00:1EFF: 65 05        	adc	<R1
  5689 00:1F01: 85 2B        	sta	<L221+ptr_9
  5690 00:1F03: B2 27        	lda	(<L221+_rs1__1)
  5691 00:1F05: 92 2B        	sta	(<L221+ptr_9)
  5692 00:1F07: B1 27        	lda	(<L221+_rs1__1),Y
  5693 00:1F09: 91 2B        	sta	(<L221+ptr_9),Y
  5694                        ;                break;
  5695 00:1F0B: 82 E8 FA     	brl	L10175
  5696                        ;
  5697                        ;
  5698                        ;            //BRANCHES ---------------------------------------------------------------------
  5699                        ;            case OPSB1_BLT:
  5700                        L10240:
  5701                        ;                if ((REGS_TYPE) *_rs1_ < (REGS_TYPE) *_rs2_) { core.pc += imm << LSHIFT; }
  5702 00:1F0E: 38           	sec
  5703 00:1F0F: B2 27        	lda	(<L221+_rs1__1)
  5704 00:1F11: F2 29        	sbc	(<L221+_rs2__1)
  5705 00:1F13: A0 02 00     	ldy	#$2
  5706 00:1F16: B1 27        	lda	(<L221+_rs1__1),Y
  5707 00:1F18: F1 29        	sbc	(<L221+_rs2__1),Y
  5708                        L20423:
  5709 00:1F1A: 70 03        	bvs	L268
  Tue Jun 17 2025  1:16                                                                                                    Page 113


  5710 00:1F1C: 49 00 80     	eor	#$8000
  5711                        L268:
  5712 00:1F1F: 10 03        	bpl	*+5
  5713 00:1F21: 82 D2 FA     	brl	L10175
  5714                        L20421:
  5715 00:1F24: A5 11        	lda	<L221+imm_1
  5716 00:1F26: 0A           	asl	A
  5717 00:1F27: 0A           	asl	A
  5718 00:1F28: 85 01        	sta	<R0
  5719 00:1F2A: A0 00 00     	ldy	#$0
  5720                        L20413:
  5721 00:1F2D: A5 01        	lda	<R0
  5722 00:1F2F: 10 01        	bpl	L270
  5723 00:1F31: 88           	dey
  5724                        L270:
  5725 00:1F32: 85 01        	sta	<R0
  5726 00:1F34: 84 03        	sty	<R0+2
  5727 00:1F36: A5 01        	lda	<R0
  5728 00:1F38: 18           	clc
  5729 00:1F39: 6D xx xx     	adc	|__core+64
  5730 00:1F3C: 8D xx xx     	sta	|__core+64
  5731 00:1F3F: A5 03        	lda	<R0+2
  5732 00:1F41: 6D xx xx     	adc	|__core+64+2
  5733                        ;                break;
  5734 00:1F44: 82 DA FE     	brl	L20274
  5735                        ;
  5736                        ;            case OPSB2_BLE: //pseudo
  5737                        L10242:
  5738                        ;                if ((REGS_TYPE) *_rs1_ <= (REGS_TYPE) *_rs2_) { core.pc += imm << LSHIFT; }
  5739 00:1F47: 38           	sec
  5740 00:1F48: B2 29        	lda	(<L221+_rs2__1)
  5741 00:1F4A: F2 27        	sbc	(<L221+_rs1__1)
  5742 00:1F4C: A0 02 00     	ldy	#$2
  5743 00:1F4F: B1 29        	lda	(<L221+_rs2__1),Y
  5744                        L20471:
  5745 00:1F51: F1 27        	sbc	(<L221+_rs1__1),Y
  5746                        L20470:
  5747 00:1F53: 70 03        	bvs	L271
  5748 00:1F55: 49 00 80     	eor	#$8000
  5749                        L271:
  5750 00:1F58: 30 CA        	bmi	L20421
  5751 00:1F5A: 82 99 FA     	brl	L10175
  5752                        ;                break;
  5753                        ;
  5754                        ;            case OPSB3_BNE:
  5755                        L10244:
  5756                        ;                if (*_rs1_ != *_rs2_) { core.pc += imm << LSHIFT; }
  5757 00:1F5D: B2 27        	lda	(<L221+_rs1__1)
  5758 00:1F5F: D2 29        	cmp	(<L221+_rs2__1)
  5759 00:1F61: D0 07        	bne	L274
  5760 00:1F63: A0 02 00     	ldy	#$2
  5761 00:1F66: B1 27        	lda	(<L221+_rs1__1),Y
  5762 00:1F68: D1 29        	cmp	(<L221+_rs2__1),Y
  5763                        L274:
  5764 00:1F6A: D0 B8        	bne	L20421
  5765 00:1F6C: 82 87 FA     	brl	L10175
  5766                        ;                break;
  5767                        ;
  Tue Jun 17 2025  1:16                                                                                                    Page 114


  5768                        ;            case OPSB4_BEQ:
  5769                        L10246:
  5770                        ;                if (*_rs1_ == *_rs2_) { core.pc += imm << LSHIFT; }
  5771 00:1F6F: B2 27        	lda	(<L221+_rs1__1)
  5772 00:1F71: D2 29        	cmp	(<L221+_rs2__1)
  5773 00:1F73: D0 07        	bne	L277
  5774 00:1F75: A0 02 00     	ldy	#$2
  5775 00:1F78: B1 27        	lda	(<L221+_rs1__1),Y
  5776 00:1F7A: D1 29        	cmp	(<L221+_rs2__1),Y
  5777                        L277:
  5778 00:1F7C: F0 A6        	beq	L20421
  5779 00:1F7E: 82 75 FA     	brl	L10175
  5780                        ;                break;
  5781                        ;
  5782                        ;            case OPSB5_BGE:
  5783                        L10248:
  5784                        ;                if ((REGS_TYPE) *_rs1_ >= (REGS_TYPE) *_rs2_) { core.pc += imm << LSHIFT; }
  5785 00:1F81: 38           	sec
  5786 00:1F82: B2 27        	lda	(<L221+_rs1__1)
  5787 00:1F84: F2 29        	sbc	(<L221+_rs2__1)
  5788 00:1F86: A0 02 00     	ldy	#$2
  5789 00:1F89: B1 27        	lda	(<L221+_rs1__1),Y
  5790 00:1F8B: F1 29        	sbc	(<L221+_rs2__1),Y
  5791 00:1F8D: 80 C4        	bra	L20470
  5792                        ;                break;
  5793                        ;
  5794                        ;            case OPSB6_BGT: //pseudo
  5795                        L10250:
  5796                        ;                if ((REGS_TYPE) *_rs1_ > (REGS_TYPE) *_rs2_) { core.pc += imm << LSHIFT; }
  5797 00:1F8F: 38           	sec
  5798 00:1F90: B2 29        	lda	(<L221+_rs2__1)
  5799 00:1F92: F2 27        	sbc	(<L221+_rs1__1)
  5800 00:1F94: A0 02 00     	ldy	#$2
  5801 00:1F97: B1 29        	lda	(<L221+_rs2__1),Y
  5802                        L20425:
  5803 00:1F99: F1 27        	sbc	(<L221+_rs1__1),Y
  5804 00:1F9B: 82 7C FF     	brl	L20423
  5805                        ;                break;
  5806                        ;
  5807                        ;
  5808                        ;            case OPSBA_BLTU:
  5809                        L10252:
  5810                        ;                if ((REGU_TYPE) *_rs1_ < (REGU_TYPE) *_rs2_) { core.pc += imm << LSHIFT; }
  5811 00:1F9E: B2 27        	lda	(<L221+_rs1__1)
  5812 00:1FA0: D2 29        	cmp	(<L221+_rs2__1)
  5813 00:1FA2: A0 02 00     	ldy	#$2
  5814 00:1FA5: B1 27        	lda	(<L221+_rs1__1),Y
  5815 00:1FA7: F1 29        	sbc	(<L221+_rs2__1),Y
  5816                        L20442:
  5817 00:1FA9: 90 03        	bcc	*+5
  5818 00:1FAB: 82 48 FA     	brl	L10175
  5819                        L20431:
  5820 00:1FAE: A5 11        	lda	<L221+imm_1
  5821 00:1FB0: 0A           	asl	A
  5822 00:1FB1: 0A           	asl	A
  5823 00:1FB2: 85 01        	sta	<R0
  5824 00:1FB4: 88           	dey
  5825 00:1FB5: 88           	dey
  Tue Jun 17 2025  1:16                                                                                                    Page 115


  5826 00:1FB6: 82 74 FF     	brl	L20413
  5827                        ;                break;
  5828                        ;
  5829                        ;            case OPSBB_BLEU: //pseudo
  5830                        L10254:
  5831                        ;                if ((REGU_TYPE) *_rs1_ <= (REGU_TYPE) *_rs2_) { core.pc += imm << LSHIFT; }
  5832 00:1FB9: B2 29        	lda	(<L221+_rs2__1)
  5833 00:1FBB: D2 27        	cmp	(<L221+_rs1__1)
  5834 00:1FBD: A0 02 00     	ldy	#$2
  5835 00:1FC0: B1 29        	lda	(<L221+_rs2__1),Y
  5836 00:1FC2: F1 27        	sbc	(<L221+_rs1__1),Y
  5837                        L20468:
  5838 00:1FC4: B0 E8        	bcs	L20431
  5839 00:1FC6: 82 2D FA     	brl	L10175
  5840                        ;                break;
  5841                        ;
  5842                        ;            case OPSBC_BGEU:
  5843                        L10256:
  5844                        ;                if ((REGU_TYPE) *_rs1_ >= (REGU_TYPE) *_rs2_) { core.pc += imm << LSHIFT; }
  5845 00:1FC9: B2 27        	lda	(<L221+_rs1__1)
  5846 00:1FCB: D2 29        	cmp	(<L221+_rs2__1)
  5847 00:1FCD: A0 02 00     	ldy	#$2
  5848 00:1FD0: B1 27        	lda	(<L221+_rs1__1),Y
  5849 00:1FD2: F1 29        	sbc	(<L221+_rs2__1),Y
  5850 00:1FD4: 80 EE        	bra	L20468
  5851                        ;                break;
  5852                        ;
  5853                        ;            case OPSBD_BGTU: //pseudo
  5854                        L10258:
  5855                        ;                //HACK for Z88DK Z80 compiler - "unsigned >" FAILS !!!
  5856                        ;                //HACK - we use reversed registers and "<" here !!!
  5857                        ;                if ((REGU_TYPE) *_rs2_ < (REGU_TYPE) *_rs1_) { core.pc += imm << LSHIFT; }
  5858 00:1FD6: B2 29        	lda	(<L221+_rs2__1)
  5859 00:1FD8: D2 27        	cmp	(<L221+_rs1__1)
  5860 00:1FDA: A0 02 00     	ldy	#$2
  5861 00:1FDD: B1 29        	lda	(<L221+_rs2__1),Y
  5862 00:1FDF: F1 27        	sbc	(<L221+_rs1__1),Y
  5863 00:1FE1: 80 C6        	bra	L20442
  5864                        ;                break;
  5865                        ;
  5866                        ;
  5867                        ;            case OPS81_BLTZ: //pseudo
  5868                        L10260:
  5869                        ;                if ((REGS_TYPE) *_rs1_ < 0) { core.pc += imm << LSHIFT; }
  5870 00:1FE3: A0 02 00     	ldy	#$2
  5871 00:1FE6: B1 27        	lda	(<L221+_rs1__1),Y
  5872 00:1FE8: 30 C4        	bmi	L20431
  5873 00:1FEA: 82 09 FA     	brl	L10175
  5874                        ;                break;
  5875                        ;
  5876                        ;            case OPS82_BLEZ: //pseudo
  5877                        L10262:
  5878                        ;                if ((REGS_TYPE) *_rs1_ <= 0) { core.pc += imm << LSHIFT; }
  5879 00:1FED: 38           	sec
  5880 00:1FEE: A9 00 00     	lda	#$0
  5881 00:1FF1: F2 27        	sbc	(<L221+_rs1__1)
  5882 00:1FF3: A9 00 00     	lda	#$0
  5883 00:1FF6: A0 02 00     	ldy	#$2
  Tue Jun 17 2025  1:16                                                                                                    Page 116


  5884 00:1FF9: 82 55 FF     	brl	L20471
  5885                        ;                break;
  5886                        ;
  5887                        ;            case OPS83_BNEZ: //pseudo
  5888                        L10264:
  5889                        ;                if ((REGS_TYPE) *_rs1_ != 0) { core.pc += imm << LSHIFT; }
  5890 00:1FFC: B2 27        	lda	(<L221+_rs1__1)
  5891 00:1FFE: A0 02 00     	ldy	#$2
  5892 00:2001: 11 27        	ora	(<L221+_rs1__1),Y
  5893 00:2003: D0 A9        	bne	L20431
  5894 00:2005: 82 EE F9     	brl	L10175
  5895                        ;                break;
  5896                        ;
  5897                        ;            case OPS84_BEQZ: //pseudo
  5898                        L10266:
  5899                        ;                if ((REGS_TYPE) *_rs1_ == 0) { core.pc += imm << LSHIFT; }
  5900 00:2008: B2 27        	lda	(<L221+_rs1__1)
  5901 00:200A: A0 02 00     	ldy	#$2
  5902 00:200D: 11 27        	ora	(<L221+_rs1__1),Y
  5903 00:200F: F0 9D        	beq	L20431
  5904 00:2011: 82 E2 F9     	brl	L10175
  5905                        ;                break;
  5906                        ;
  5907                        ;            case OPS85_BGEZ: //pseudo
  5908                        L10268:
  5909                        ;                if ((REGS_TYPE) *_rs1_ >= 0) { core.pc += imm << LSHIFT; }
  5910 00:2014: A0 02 00     	ldy	#$2
  5911 00:2017: B1 27        	lda	(<L221+_rs1__1),Y
  5912 00:2019: 10 93        	bpl	L20431
  5913 00:201B: 82 D8 F9     	brl	L10175
  5914                        ;                break;
  5915                        ;
  5916                        ;            case OPS86_BGTZ: //pseudo
  5917                        L10270:
  5918                        ;                if ((REGS_TYPE) *_rs1_ > 0) { core.pc += imm << LSHIFT; }
  5919 00:201E: 38           	sec
  5920 00:201F: A9 00 00     	lda	#$0
  5921 00:2022: F2 27        	sbc	(<L221+_rs1__1)
  5922 00:2024: A9 00 00     	lda	#$0
  5923 00:2027: A0 02 00     	ldy	#$2
  5924 00:202A: 82 6C FF     	brl	L20425
  5925                        ;                break;
  5926                        ;
  5927                        ;
  5928                        ;            // LUI, AUIPC, JAL ---------------------------------------------------------------
  5929                        ;            case OPU71_LUI:
  5930                        L10272:
  5931                        ;                *_rd_ = ((REGU_TYPE)imm << IMM_BITS); //TODO //TEST
  5932 00:202D: A0 00 00     	ldy	#$0
  5933 00:2030: A5 11        	lda	<L221+imm_1
  5934 00:2032: 10 01        	bpl	L308
  5935 00:2034: 88           	dey
  5936                        L308:
  5937 00:2035: 85 05        	sta	<R1
  5938 00:2037: 84 07        	sty	<R1+2
  5939 00:2039: D4 07        	pei	<R1+2
  5940 00:203B: D4 05        	pei	<R1
  5941 00:203D: A9 10 00     	lda	#$10
  Tue Jun 17 2025  1:16                                                                                                    Page 117


  5942 00:2040: 82 26 FA     	brl	L20238
  5943                        ;
  5944                        ;//                print("rd:  "); println(itoh(*_rd_,8));
  5945                        ;
  5946                        ;                break;
  5947                        ;
  5948                        ;            case OPU7A_AUIPC:
  5949                        L10273:
  5950                        ;                *_rd_ = ((REGU_TYPE)imm << IMM_BITS) + pc; //TODO //TEST
  5951 00:2043: A0 00 00     	ldy	#$0
  5952 00:2046: A5 11        	lda	<L221+imm_1
  5953 00:2048: 10 01        	bpl	L309
  5954 00:204A: 88           	dey
  5955                        L309:
  5956 00:204B: 85 05        	sta	<R1
  5957 00:204D: 84 07        	sty	<R1+2
  5958 00:204F: D4 07        	pei	<R1+2
  5959 00:2051: D4 05        	pei	<R1
  5960 00:2053: A9 10 00     	lda	#$10
  5961                        	xref	__~lasl
  5962 00:2056: 20 xx xx     	jsr	__~lasl
  5963 00:2059: 86 03        	stx	<R0+2
  5964 00:205B: 18           	clc
  5965 00:205C: 65 13        	adc	<L221+pc_1
  5966 00:205E: 85 09        	sta	<R2
  5967 00:2060: A5 03        	lda	<R0+2
  5968 00:2062: 65 15        	adc	<L221+pc_1+2
  5969 00:2064: 85 0B        	sta	<R2+2
  5970 00:2066: A5 09        	lda	<R2
  5971 00:2068: 92 25        	sta	(<L221+_rd__1)
  5972 00:206A: A5 0B        	lda	<R2+2
  5973 00:206C: 82 82 F9     	brl	L20185
  5974                        ;                break;
  5975                        ;
  5976                        ;            case OPU7F_JAL: // !!!! IMMEDIATE HERE POSSIBLY 20 BITS, NOT NOW, WE USE STRICT 16bit FIE
                    LD !!!!
  5977                        L10274:
  5978                        ;                *_rd_ = pc + 4; core.pc += imm << LSHIFT; //& ~0x1; in RISCV !!!!!!!!!!!!!!!!!!!!!!!!
                    !!!!!!!!!!!!!
  5979 00:206F: A9 04 00     	lda	#$4
  5980 00:2072: 18           	clc
  5981 00:2073: 65 13        	adc	<L221+pc_1
  5982 00:2075: 85 01        	sta	<R0
  5983 00:2077: A9 00 00     	lda	#$0
  5984 00:207A: 65 15        	adc	<L221+pc_1+2
  5985 00:207C: 85 03        	sta	<R0+2
  5986 00:207E: A5 01        	lda	<R0
  5987 00:2080: 92 25        	sta	(<L221+_rd__1)
  5988 00:2082: A5 03        	lda	<R0+2
  5989 00:2084: A0 02 00     	ldy	#$2
  5990 00:2087: 91 25        	sta	(<L221+_rd__1),Y
  5991 00:2089: 82 22 FF     	brl	L20431
  5992                        ;                break;
  5993                        ;
  5994                        ;
  5995                        ;            //GOTO, CALL
  5996                        ;            case OPU66_GOTO: //pseudo // !!!! IMMEDIATE HERE POSSIBLY 20 BITS, NOT NOW, WE USE STRICT
                     16bit FIELD !!!!
  Tue Jun 17 2025  1:16                                                                                                    Page 118


  5997                        ;                core.pc += imm << LSHIFT; //& ~0x1; in RISCV !!!!!!!!!!!!!!!!!!!!!!!!!!!!!!!!!!!!!
  5998                        ;                break;
  5999                        ;
  6000                        ;            case OPU6C_CALL: //pseudo // !!!! IMMEDIATE HERE POSSIBLY 20 BITS, NOT NOW, WE USE STRICT
                     16bit FIELD !!!!
  6001                        L10276:
  6002                        ;                _reg_[1] = pc + 4; core.pc += imm << LSHIFT; //& ~0x1; in RISCV !!!!!!!!!!!!!!!!!!!!!
                    !!!!!!!!!!!!!!!!
  6003 00:208C: A9 04 00     	lda	#$4
  6004 00:208F: 18           	clc
  6005 00:2090: 65 13        	adc	<L221+pc_1
  6006 00:2092: 85 01        	sta	<R0
  6007 00:2094: A9 00 00     	lda	#$0
  6008 00:2097: 65 15        	adc	<L221+pc_1+2
  6009 00:2099: 85 03        	sta	<R0+2
  6010 00:209B: A5 01        	lda	<R0
  6011 00:209D: A0 04 00     	ldy	#$4
  6012 00:20A0: 91 1D        	sta	(<L221+_reg__1),Y
  6013 00:20A2: A5 03        	lda	<R0+2
  6014 00:20A4: C8           	iny
  6015 00:20A5: C8           	iny
  6016 00:20A6: 91 1D        	sta	(<L221+_reg__1),Y
  6017 00:20A8: 82 79 FE     	brl	L20421
  6018                        ;                break;
  6019                        ;
  6020                        ;
  6021                        ;
  6022                        ;            default:
  6023                        L10277:
  6024                        ;                #ifdef CONSOLE
  6025                        ;                print("Unknown opcode: "); println(itoh(opcode, 1));
  6026 00:20AB: F4 xx xx     	pea	#<L219+27
  6027 00:20AE: 20 xx xx     	jsr	__print
  6028 00:20B1: F4 01 00     	pea	#<$1
  6029 00:20B4: A5 0D        	lda	<L221+opcode_1
  6030 00:20B6: 29 FF 00     	and	#$ff
  6031 00:20B9: 85 01        	sta	<R0
  6032 00:20BB: 64 03        	stz	<R0+2
  6033 00:20BD: D4 03        	pei	<R0+2
  6034 00:20BF: D4 01        	pei	<R0
  6035 00:20C1: 20 xx xx     	jsr	__itoh
  6036 00:20C4: 48           	pha
  6037                        ;                #endif
  6038                        ;                break;
  6039 00:20C5: 82 62 FD     	brl	L20275
  6040                        ;        }
  6041                        L10155:
  6042                        ;
  6043                        ;    return r10i;
  6044 00:20C8: A5 17        	lda	<L221+r10i_1
  6045 00:20CA: A8           	tay
  6046 00:20CB: A5 2D        	lda	<L220+1
  6047 00:20CD: 85 31        	sta	<L220+1+4
  6048 00:20CF: 2B           	pld
  6049 00:20D0: 3B           	tsc
  6050 00:20D1: 18           	clc
  6051 00:20D2: 69 30 00     	adc	#L220+4
  6052 00:20D5: 1B           	tcs
  Tue Jun 17 2025  1:16                                                                                                    Page 119


  6053 00:20D6: 98           	tya
  6054 00:20D7: 60           	rts
  6055                        ;}
  6056             0000002C   L220	equ	44
  6057             0000000D   L221	equ	13
  6058                        	ends
  6059                        	efunc
  6060                        	data
  6061                        L219:
  6062 00:1061: 20 20 73 79  	db	$20,$20,$73,$79,$73,$74,$65,$6D,$20,$63,$61,$6C,$6C,$00,$20
       00:1065: 73 74 65 6D 
       00:1069: 20 63 61 6C 
       00:106D: 6C 00 20 
  6063 00:1070: 20 62 72 65  	db	$20,$62,$72,$65,$61,$6B,$70,$6F,$69,$6E,$74,$00,$55,$6E,$6B
       00:1074: 61 6B 70 6F 
       00:1078: 69 6E 74 00 
       00:107C: 55 6E 6B 
  6064 00:107F: 6E 6F 77 6E  	db	$6E,$6F,$77,$6E,$20,$6F,$70,$63,$6F,$64,$65,$3A,$20,$00
       00:1083: 20 6F 70 63 
       00:1087: 6F 64 65 3A 
       00:108B: 20 00 
  6065 00:108D:              	ends
  6066                        ;
  6067                        ;
  6068                        	xref	__printf
  6069                        	xref	__fgets
  6070                        	xref	__strcspn
  6071                        	xref	__strcmp
  6072                        	xref	__memset
  6073                        	xref	__memcpy
  6074                        	udata
  6075                        __printbuffer
  6076 00:0000:              	ds	40
  6077 00:0028:              	ends
  6078                        	xref	___iob


      Lines assembled: 6078
      Errors: 0
